

Microchip MPLAB XC8 Assembler V2.31 build 20201012212115 
                                                                                               Tue Feb 09 17:42:27 2021

Microchip MPLAB XC8 C Compiler v2.31 (Free license) build 20201012212115 Og1 
     1                           	processor	16F1938
     2                           	pagewidth 120
     3                           	opt	flic
     4                           	psect	idataBANK0,global,class=CODE,delta=2,noexec
     5                           	psect	idataBANK1,global,class=CODE,delta=2,noexec
     6                           	psect	idataBANK2,global,class=CODE,delta=2,noexec
     7                           	psect	cinit,global,class=CODE,merge=1,delta=2
     8                           	psect	bssCOMMON,global,class=COMMON,space=1,delta=1,noexec
     9                           	psect	bssBANK0,global,class=BANK0,space=1,delta=1,noexec
    10                           	psect	dataBANK0,global,class=BANK0,space=1,delta=1,noexec
    11                           	psect	dataBANK1,global,class=BANK1,space=1,delta=1,noexec
    12                           	psect	dataBANK2,global,class=BANK2,space=1,delta=1,noexec
    13                           	psect	inittext,global,class=CODE,delta=2
    14                           	psect	clrtext,global,class=CODE,delta=2
    15                           	psect	cstackCOMMON,global,class=COMMON,space=1,delta=1,noexec
    16                           	psect	cstackBANK0,global,class=BANK0,space=1,delta=1,noexec
    17                           	psect	maintext,global,class=CODE,merge=1,split=1,delta=2
    18                           	psect	text1,local,class=CODE,merge=1,delta=2
    19                           	psect	text2,local,class=CODE,merge=1,delta=2
    20                           	psect	text3,local,class=CODE,merge=1,delta=2
    21                           	psect	text4,local,class=CODE,merge=1,delta=2,group=1
    22                           	psect	text5,local,class=CODE,merge=1,delta=2
    23                           	psect	text6,local,class=CODE,merge=1,delta=2
    24                           	psect	config,global,abs,ovrld,class=CONFIG,space=4,delta=2,noexec
    25                           	dabs	1,0x7E,2
    26  0000                     
    27                           ; Version 2.20
    28                           ; Generated 12/02/2020 GMT
    29                           ; 
    30                           ; Copyright © 2020, Microchip Technology Inc. and its subsidiaries ("Microchip")
    31                           ; All rights reserved.
    32                           ; 
    33                           ; This software is developed by Microchip Technology Inc. and its subsidiaries ("Microch
      +                          ip").
    34                           ; 
    35                           ; Redistribution and use in source and binary forms, with or without modification, are
    36                           ; permitted provided that the following conditions are met:
    37                           ; 
    38                           ;     1. Redistributions of source code must retain the above copyright notice, this lis
      +                          t of
    39                           ;        conditions and the following disclaimer.
    40                           ; 
    41                           ;     2. Redistributions in binary form must reproduce the above copyright notice, this 
      +                          list
    42                           ;        of conditions and the following disclaimer in the documentation and/or other
    43                           ;        materials provided with the distribution.
    44                           ; 
    45                           ;     3. Microchip's name may not be used to endorse or promote products derived from th
      +                          is
    46                           ;        software without specific prior written permission.
    47                           ; 
    48                           ; THIS SOFTWARE IS PROVIDED BY MICROCHIP "AS IS" AND ANY EXPRESS OR IMPLIED WARRANTIES,
    49                           ; INCLUDING, BUT NOT LIMITED TO, THE IMPLIED WARRANTIES OF MERCHANTABILITY AND FITNESS F
      +                          OR
    50                           ; PURPOSE ARE DISCLAIMED.  IN NO EVENT SHALL MICROCHIP BE LIABLE FOR ANY DIRECT, INDIREC
      +                          T,
    51                           ; INCIDENTAL, SPECIAL, EXEMPLARY, OR CONSEQUENTIAL DAMAGES (INCLUDING BUT NOT LIMITED TO
    52                           ; PROCUREMENT OF SUBSTITUTE GOODS OR SERVICES; LOSS OF USE, DATA OR PROFITS; OR BUSINESS
    53                           ; INTERRUPTION) HOWSOEVER CAUSED AND ON ANY THEORY OF LIABILITY, WHETHER IN CONTRACT, ST
      +                          RICT
    54                           ; LIABILITY, OR TORT (INCLUDING NEGLIGENCE OR OTHERWISE) ARISING IN ANY WAY OUT OF THE U
      +                          SE OF
    55                           ; THIS SOFTWARE, EVEN IF ADVISED OF THE POSSIBILITY OF SUCH DAMAGE.
    56                           ; 
    57                           ; 
    58                           ; Code-generator required, PIC16F1938 Definitions
    59                           ; 
    60                           ; SFR Addresses
    61  0000                     	;# 
    62  0001                     	;# 
    63  0002                     	;# 
    64  0003                     	;# 
    65  0004                     	;# 
    66  0005                     	;# 
    67  0006                     	;# 
    68  0007                     	;# 
    69  0008                     	;# 
    70  0009                     	;# 
    71  000A                     	;# 
    72  000B                     	;# 
    73  000C                     	;# 
    74  000D                     	;# 
    75  000E                     	;# 
    76  0010                     	;# 
    77  0011                     	;# 
    78  0012                     	;# 
    79  0013                     	;# 
    80  0015                     	;# 
    81  0016                     	;# 
    82  0016                     	;# 
    83  0017                     	;# 
    84  0018                     	;# 
    85  0019                     	;# 
    86  001A                     	;# 
    87  001B                     	;# 
    88  001C                     	;# 
    89  001E                     	;# 
    90  001F                     	;# 
    91  008C                     	;# 
    92  008D                     	;# 
    93  008E                     	;# 
    94  0090                     	;# 
    95  0091                     	;# 
    96  0092                     	;# 
    97  0093                     	;# 
    98  0095                     	;# 
    99  0096                     	;# 
   100  0097                     	;# 
   101  0098                     	;# 
   102  0099                     	;# 
   103  009A                     	;# 
   104  009B                     	;# 
   105  009B                     	;# 
   106  009C                     	;# 
   107  009D                     	;# 
   108  009E                     	;# 
   109  010C                     	;# 
   110  010D                     	;# 
   111  010E                     	;# 
   112  0110                     	;# 
   113  0111                     	;# 
   114  0112                     	;# 
   115  0113                     	;# 
   116  0114                     	;# 
   117  0115                     	;# 
   118  0116                     	;# 
   119  0117                     	;# 
   120  0118                     	;# 
   121  0119                     	;# 
   122  011A                     	;# 
   123  011B                     	;# 
   124  011D                     	;# 
   125  018C                     	;# 
   126  018D                     	;# 
   127  0191                     	;# 
   128  0191                     	;# 
   129  0192                     	;# 
   130  0193                     	;# 
   131  0193                     	;# 
   132  0193                     	;# 
   133  0194                     	;# 
   134  0195                     	;# 
   135  0196                     	;# 
   136  0199                     	;# 
   137  019A                     	;# 
   138  019B                     	;# 
   139  019B                     	;# 
   140  019B                     	;# 
   141  019B                     	;# 
   142  019C                     	;# 
   143  019C                     	;# 
   144  019D                     	;# 
   145  019E                     	;# 
   146  019F                     	;# 
   147  020D                     	;# 
   148  0210                     	;# 
   149  0211                     	;# 
   150  0212                     	;# 
   151  0213                     	;# 
   152  0214                     	;# 
   153  0215                     	;# 
   154  0215                     	;# 
   155  0216                     	;# 
   156  0217                     	;# 
   157  0291                     	;# 
   158  0291                     	;# 
   159  0292                     	;# 
   160  0293                     	;# 
   161  0294                     	;# 
   162  0295                     	;# 
   163  0295                     	;# 
   164  0296                     	;# 
   165  0298                     	;# 
   166  0298                     	;# 
   167  0299                     	;# 
   168  029A                     	;# 
   169  029B                     	;# 
   170  029C                     	;# 
   171  029C                     	;# 
   172  029D                     	;# 
   173  029E                     	;# 
   174  029F                     	;# 
   175  0311                     	;# 
   176  0311                     	;# 
   177  0312                     	;# 
   178  0313                     	;# 
   179  0314                     	;# 
   180  0315                     	;# 
   181  0315                     	;# 
   182  0316                     	;# 
   183  0318                     	;# 
   184  0318                     	;# 
   185  0319                     	;# 
   186  031A                     	;# 
   187  031C                     	;# 
   188  031C                     	;# 
   189  031D                     	;# 
   190  031E                     	;# 
   191  0394                     	;# 
   192  0395                     	;# 
   193  0396                     	;# 
   194  0415                     	;# 
   195  0416                     	;# 
   196  0417                     	;# 
   197  041C                     	;# 
   198  041D                     	;# 
   199  041E                     	;# 
   200  0791                     	;# 
   201  0792                     	;# 
   202  0793                     	;# 
   203  0794                     	;# 
   204  0795                     	;# 
   205  0798                     	;# 
   206  0799                     	;# 
   207  07A0                     	;# 
   208  07A1                     	;# 
   209  07A3                     	;# 
   210  07A4                     	;# 
   211  07A6                     	;# 
   212  07A7                     	;# 
   213  07A9                     	;# 
   214  07AA                     	;# 
   215  0FE4                     	;# 
   216  0FE5                     	;# 
   217  0FE6                     	;# 
   218  0FE7                     	;# 
   219  0FE8                     	;# 
   220  0FE9                     	;# 
   221  0FEA                     	;# 
   222  0FEB                     	;# 
   223  0FED                     	;# 
   224  0FEE                     	;# 
   225  0FEF                     	;# 
   226  0000                     	;# 
   227  0001                     	;# 
   228  0002                     	;# 
   229  0003                     	;# 
   230  0004                     	;# 
   231  0005                     	;# 
   232  0006                     	;# 
   233  0007                     	;# 
   234  0008                     	;# 
   235  0009                     	;# 
   236  000A                     	;# 
   237  000B                     	;# 
   238  000C                     	;# 
   239  000D                     	;# 
   240  000E                     	;# 
   241  0010                     	;# 
   242  0011                     	;# 
   243  0012                     	;# 
   244  0013                     	;# 
   245  0015                     	;# 
   246  0016                     	;# 
   247  0016                     	;# 
   248  0017                     	;# 
   249  0018                     	;# 
   250  0019                     	;# 
   251  001A                     	;# 
   252  001B                     	;# 
   253  001C                     	;# 
   254  001E                     	;# 
   255  001F                     	;# 
   256  008C                     	;# 
   257  008D                     	;# 
   258  008E                     	;# 
   259  0090                     	;# 
   260  0091                     	;# 
   261  0092                     	;# 
   262  0093                     	;# 
   263  0095                     	;# 
   264  0096                     	;# 
   265  0097                     	;# 
   266  0098                     	;# 
   267  0099                     	;# 
   268  009A                     	;# 
   269  009B                     	;# 
   270  009B                     	;# 
   271  009C                     	;# 
   272  009D                     	;# 
   273  009E                     	;# 
   274  010C                     	;# 
   275  010D                     	;# 
   276  010E                     	;# 
   277  0110                     	;# 
   278  0111                     	;# 
   279  0112                     	;# 
   280  0113                     	;# 
   281  0114                     	;# 
   282  0115                     	;# 
   283  0116                     	;# 
   284  0117                     	;# 
   285  0118                     	;# 
   286  0119                     	;# 
   287  011A                     	;# 
   288  011B                     	;# 
   289  011D                     	;# 
   290  018C                     	;# 
   291  018D                     	;# 
   292  0191                     	;# 
   293  0191                     	;# 
   294  0192                     	;# 
   295  0193                     	;# 
   296  0193                     	;# 
   297  0193                     	;# 
   298  0194                     	;# 
   299  0195                     	;# 
   300  0196                     	;# 
   301  0199                     	;# 
   302  019A                     	;# 
   303  019B                     	;# 
   304  019B                     	;# 
   305  019B                     	;# 
   306  019B                     	;# 
   307  019C                     	;# 
   308  019C                     	;# 
   309  019D                     	;# 
   310  019E                     	;# 
   311  019F                     	;# 
   312  020D                     	;# 
   313  0210                     	;# 
   314  0211                     	;# 
   315  0212                     	;# 
   316  0213                     	;# 
   317  0214                     	;# 
   318  0215                     	;# 
   319  0215                     	;# 
   320  0216                     	;# 
   321  0217                     	;# 
   322  0291                     	;# 
   323  0291                     	;# 
   324  0292                     	;# 
   325  0293                     	;# 
   326  0294                     	;# 
   327  0295                     	;# 
   328  0295                     	;# 
   329  0296                     	;# 
   330  0298                     	;# 
   331  0298                     	;# 
   332  0299                     	;# 
   333  029A                     	;# 
   334  029B                     	;# 
   335  029C                     	;# 
   336  029C                     	;# 
   337  029D                     	;# 
   338  029E                     	;# 
   339  029F                     	;# 
   340  0311                     	;# 
   341  0311                     	;# 
   342  0312                     	;# 
   343  0313                     	;# 
   344  0314                     	;# 
   345  0315                     	;# 
   346  0315                     	;# 
   347  0316                     	;# 
   348  0318                     	;# 
   349  0318                     	;# 
   350  0319                     	;# 
   351  031A                     	;# 
   352  031C                     	;# 
   353  031C                     	;# 
   354  031D                     	;# 
   355  031E                     	;# 
   356  0394                     	;# 
   357  0395                     	;# 
   358  0396                     	;# 
   359  0415                     	;# 
   360  0416                     	;# 
   361  0417                     	;# 
   362  041C                     	;# 
   363  041D                     	;# 
   364  041E                     	;# 
   365  0791                     	;# 
   366  0792                     	;# 
   367  0793                     	;# 
   368  0794                     	;# 
   369  0795                     	;# 
   370  0798                     	;# 
   371  0799                     	;# 
   372  07A0                     	;# 
   373  07A1                     	;# 
   374  07A3                     	;# 
   375  07A4                     	;# 
   376  07A6                     	;# 
   377  07A7                     	;# 
   378  07A9                     	;# 
   379  07AA                     	;# 
   380  0FE4                     	;# 
   381  0FE5                     	;# 
   382  0FE6                     	;# 
   383  0FE7                     	;# 
   384  0FE8                     	;# 
   385  0FE9                     	;# 
   386  0FEA                     	;# 
   387  0FEB                     	;# 
   388  0FED                     	;# 
   389  0FEE                     	;# 
   390  0FEF                     	;# 
   391                           
   392                           	psect	idataBANK0
   393  04B1                     __pidataBANK0:
   394                           
   395                           ;initializer for _gusu
   396  04B1  343F               	retlw	63
   397  04B2  3400               	retlw	0
   398  04B3  345B               	retlw	91
   399  04B4  3400               	retlw	0
   400  04B5  3466               	retlw	102
   401  04B6  3400               	retlw	0
   402  04B7  347D               	retlw	125
   403  04B8  3400               	retlw	0
   404  04B9  347F               	retlw	127
   405  04BA  3400               	retlw	0
   406                           
   407                           ;initializer for _mojn
   408  04BB  3454               	retlw	84
   409  04BC  3400               	retlw	0
   410  04BD  3473               	retlw	115
   411  04BE  3400               	retlw	0
   412                           
   413                           ;initializer for _mojh
   414  04BF  3476               	retlw	118
   415  04C0  3400               	retlw	0
   416  04C1  3438               	retlw	56
   417  04C2  3400               	retlw	0
   418                           
   419                           	psect	idataBANK1
   420  05A6                     __pidataBANK1:
   421                           
   422                           ;initializer for _samp
   423  05A6  343F               	retlw	63
   424  05A7  3400               	retlw	0
   425  05A8  3406               	retlw	6
   426  05A9  3400               	retlw	0
   427  05AA  345B               	retlw	91
   428  05AB  3400               	retlw	0
   429  05AC  344F               	retlw	79
   430  05AD  3400               	retlw	0
   431  05AE  3466               	retlw	102
   432  05AF  3400               	retlw	0
   433  05B0  346D               	retlw	109
   434  05B1  3400               	retlw	0
   435  05B2  347D               	retlw	125
   436  05B3  3400               	retlw	0
   437  05B4  3427               	retlw	39
   438  05B5  3400               	retlw	0
   439  05B6  347F               	retlw	127
   440  05B7  3400               	retlw	0
   441  05B8  346F               	retlw	111
   442  05B9  3400               	retlw	0
   443  05BA  345F               	retlw	95
   444  05BB  3400               	retlw	0
   445  05BC  347C               	retlw	124
   446  05BD  3400               	retlw	0
   447  05BE  3458               	retlw	88
   448  05BF  3400               	retlw	0
   449  05C0  345E               	retlw	94
   450  05C1  3400               	retlw	0
   451  05C2  3479               	retlw	121
   452  05C3  3400               	retlw	0
   453  05C4  3471               	retlw	113
   454  05C5  3400               	retlw	0
   455                           
   456                           ;initializer for _num0
   457  05C6  343F               	retlw	63
   458  05C7  3400               	retlw	0
   459  05C8  3406               	retlw	6
   460  05C9  3400               	retlw	0
   461  05CA  345B               	retlw	91
   462  05CB  3400               	retlw	0
   463  05CC  344F               	retlw	79
   464  05CD  3400               	retlw	0
   465  05CE  3466               	retlw	102
   466  05CF  3400               	retlw	0
   467  05D0  346D               	retlw	109
   468  05D1  3400               	retlw	0
   469  05D2  347D               	retlw	125
   470  05D3  3400               	retlw	0
   471  05D4  3427               	retlw	39
   472  05D5  3400               	retlw	0
   473  05D6  347F               	retlw	127
   474  05D7  3400               	retlw	0
   475  05D8  346F               	retlw	111
   476  05D9  3400               	retlw	0
   477                           
   478                           ;initializer for _moja
   479  05DA  345F               	retlw	95
   480  05DB  3400               	retlw	0
   481  05DC  347C               	retlw	124
   482  05DD  3400               	retlw	0
   483  05DE  3458               	retlw	88
   484  05DF  3400               	retlw	0
   485  05E0  345E               	retlw	94
   486  05E1  3400               	retlw	0
   487  05E2  3479               	retlw	121
   488  05E3  3400               	retlw	0
   489  05E4  3471               	retlw	113
   490  05E5  3400               	retlw	0
   491                           
   492                           ;initializer for _kisu
   493  05E6  3406               	retlw	6
   494  05E7  3400               	retlw	0
   495  05E8  344F               	retlw	79
   496  05E9  3400               	retlw	0
   497  05EA  346D               	retlw	109
   498  05EB  3400               	retlw	0
   499  05EC  3427               	retlw	39
   500  05ED  3400               	retlw	0
   501  05EE  346F               	retlw	111
   502  05EF  3400               	retlw	0
   503                           
   504                           	psect	idataBANK2
   505  0566                     __pidataBANK2:
   506                           
   507                           ;initializer for _samf
   508  0566  3471               	retlw	113
   509  0567  3400               	retlw	0
   510  0568  3479               	retlw	121
   511  0569  3400               	retlw	0
   512  056A  345E               	retlw	94
   513  056B  3400               	retlw	0
   514  056C  3458               	retlw	88
   515  056D  3400               	retlw	0
   516  056E  347C               	retlw	124
   517  056F  3400               	retlw	0
   518  0570  345F               	retlw	95
   519  0571  3400               	retlw	0
   520  0572  346F               	retlw	111
   521  0573  3400               	retlw	0
   522  0574  347F               	retlw	127
   523  0575  3400               	retlw	0
   524  0576  3427               	retlw	39
   525  0577  3400               	retlw	0
   526  0578  347D               	retlw	125
   527  0579  3400               	retlw	0
   528  057A  346D               	retlw	109
   529  057B  3400               	retlw	0
   530  057C  3466               	retlw	102
   531  057D  3400               	retlw	0
   532  057E  344F               	retlw	79
   533  057F  3400               	retlw	0
   534  0580  345B               	retlw	91
   535  0581  3400               	retlw	0
   536  0582  3406               	retlw	6
   537  0583  3400               	retlw	0
   538  0584  343F               	retlw	63
   539  0585  3400               	retlw	0
   540                           
   541                           ;initializer for _moji
   542  0586  345F               	retlw	95
   543  0587  3400               	retlw	0
   544  0588  347C               	retlw	124
   545  0589  3400               	retlw	0
   546  058A  3458               	retlw	88
   547  058B  3400               	retlw	0
   548  058C  345E               	retlw	94
   549  058D  3400               	retlw	0
   550  058E  3479               	retlw	121
   551  058F  3400               	retlw	0
   552  0590  3471               	retlw	113
   553  0591  3400               	retlw	0
   554  0592  3476               	retlw	118
   555  0593  3400               	retlw	0
   556  0594  3438               	retlw	56
   557  0595  3400               	retlw	0
   558  0596  3454               	retlw	84
   559  0597  3400               	retlw	0
   560  0598  3473               	retlw	115
   561  0599  3400               	retlw	0
   562                           
   563                           ;initializer for _mojf
   564  059A  3471               	retlw	113
   565  059B  3400               	retlw	0
   566  059C  3479               	retlw	121
   567  059D  3400               	retlw	0
   568  059E  345E               	retlw	94
   569  059F  3400               	retlw	0
   570  05A0  3458               	retlw	88
   571  05A1  3400               	retlw	0
   572  05A2  347C               	retlw	124
   573  05A3  3400               	retlw	0
   574  05A4  345F               	retlw	95
   575  05A5  3400               	retlw	0
   576  000E                     _PORTC	set	14
   577  000D                     _PORTB	set	13
   578  000C                     _PORTA	set	12
   579  0061                     _RA1	set	97
   580  0060                     _RA0	set	96
   581  0062                     _RA2	set	98
   582  0077                     _RC7	set	119
   583  0072                     _RC2	set	114
   584  0071                     _RC1	set	113
   585  0070                     _RC0	set	112
   586  0076                     _RC6	set	118
   587  0075                     _RC5	set	117
   588  0099                     _OSCCON	set	153
   589  008E                     _TRISC	set	142
   590  008D                     _TRISB	set	141
   591  008C                     _TRISA	set	140
   592  018D                     _ANSELB	set	397
   593  018C                     _ANSELA	set	396
   594                           
   595                           	psect	cinit
   596  07CD                     start_initialization:	
   597                           ; #config settings
   598                           
   599  07CD                     __initialization:
   600                           
   601                           ; Initialize objects allocated to BANK0
   602  07CD  30B1               	movlw	low __pidataBANK0
   603  07CE  0084               	movwf	4
   604  07CF  3084               	movlw	(high __pidataBANK0)| (0+128)
   605  07D0  0085               	movwf	5
   606  07D1  3056               	movlw	low __pdataBANK0
   607  07D2  0086               	movwf	6
   608  07D3  3000               	movlw	high __pdataBANK0
   609  07D4  0087               	movwf	7
   610  07D5  3012               	movlw	18
   611  07D6  3184  24A2  3187   	fcall	init_ram
   612                           
   613                           ; Initialize objects allocated to BANK1
   614  07D9  30A6               	movlw	low __pidataBANK1
   615  07DA  0084               	movwf	4
   616  07DB  3085               	movlw	(high __pidataBANK1)| (0+128)
   617  07DC  0085               	movwf	5
   618  07DD  30A0               	movlw	low __pdataBANK1
   619  07DE  0086               	movwf	6
   620  07DF  3000               	movlw	high __pdataBANK1
   621  07E0  0087               	movwf	7
   622  07E1  304A               	movlw	74
   623  07E2  3184  24A2  3187   	fcall	init_ram
   624                           
   625                           ; Initialize objects allocated to BANK2
   626  07E5  3066               	movlw	low __pidataBANK2
   627  07E6  0084               	movwf	4
   628  07E7  3085               	movlw	(high __pidataBANK2)| (0+128)
   629  07E8  0085               	movwf	5
   630  07E9  3020               	movlw	low __pdataBANK2
   631  07EA  0086               	movwf	6
   632  07EB  3001               	movlw	high __pdataBANK2
   633  07EC  0087               	movwf	7
   634  07ED  3040               	movlw	64
   635  07EE  3184  24A2  3187   	fcall	init_ram
   636                           
   637                           ; Clear objects allocated to COMMON
   638  07F1  01FA               	clrf	__pbssCOMMON& (0+127)
   639  07F2  01FB               	clrf	(__pbssCOMMON+1)& (0+127)
   640  07F3  01FC               	clrf	(__pbssCOMMON+2)& (0+127)
   641  07F4  01FD               	clrf	(__pbssCOMMON+3)& (0+127)
   642                           
   643                           ; Clear objects allocated to BANK0
   644  07F5  3020               	movlw	low __pbssBANK0
   645  07F6  0084               	movwf	4
   646  07F7  3000               	movlw	high __pbssBANK0
   647  07F8  0085               	movwf	5
   648  07F9  301E               	movlw	30
   649  07FA  3184  249C  3187   	fcall	clear_ram0
   650  07FD                     end_of_initialization:	
   651                           ;End of C runtime variable initialization code
   652                           
   653  07FD                     __end_of__initialization:
   654  07FD  0020               	movlb	0
   655  07FE  3185  2DF0         	ljmp	_main	;jump to C main() function
   656                           
   657                           	psect	bssCOMMON
   658  007A                     __pbssCOMMON:
   659  007A                     _cw:
   660  007A                     	ds	2
   661  007C                     _flag_sw3:
   662  007C                     	ds	2
   663                           
   664                           	psect	bssBANK0
   665  0020                     __pbssBANK0:
   666  0020                     _fugou:
   667  0020                     	ds	2
   668  0022                     _code1:
   669  0022                     	ds	2
   670  0024                     _code10:
   671  0024                     	ds	2
   672  0026                     _code100:
   673  0026                     	ds	2
   674  0028                     _code1000:
   675  0028                     	ds	2
   676  002A                     _count:
   677  002A                     	ds	2
   678  002C                     _atai:
   679  002C                     	ds	2
   680  002E                     _atai1:
   681  002E                     	ds	2
   682  0030                     _atai10:
   683  0030                     	ds	2
   684  0032                     _ccw:
   685  0032                     	ds	2
   686  0034                     _flg:
   687  0034                     	ds	2
   688  0036                     _flag_P:
   689  0036                     	ds	2
   690  0038                     _flag_R:
   691  0038                     	ds	2
   692  003A                     _flag_sw2:
   693  003A                     	ds	2
   694  003C                     _flag_sw1:
   695  003C                     	ds	2
   696                           
   697                           	psect	dataBANK0
   698  0056                     __pdataBANK0:
   699  0056                     _gusu:
   700  0056                     	ds	10
   701  0060                     _mojn:
   702  0060                     	ds	4
   703  0064                     _mojh:
   704  0064                     	ds	4
   705                           
   706                           	psect	dataBANK1
   707  00A0                     __pdataBANK1:
   708  00A0                     _samp:
   709  00A0                     	ds	32
   710  00C0                     _num0:
   711  00C0                     	ds	20
   712  00D4                     _moja:
   713  00D4                     	ds	12
   714  00E0                     _kisu:
   715  00E0                     	ds	10
   716                           
   717                           	psect	dataBANK2
   718  0120                     __pdataBANK2:
   719  0120                     _samf:
   720  0120                     	ds	32
   721  0140                     _moji:
   722  0140                     	ds	20
   723  0154                     _mojf:
   724  0154                     	ds	12
   725                           
   726                           	psect	inittext
   727  04A2                     init_ram:
   728  04A2  00FE               	movwf	btemp
   729  04A3                     initloop:
   730  04A3  0012               	moviw fsr0++
   731  04A4  001E               	movwi fsr1++
   732  04A5  0BFE               	decfsz	btemp,f
   733  04A6  2CA3               	goto	initloop
   734  04A7  3400               	retlw	0
   735                           
   736                           	psect	clrtext
   737  049C                     clear_ram0:	
   738                           ;	Called with FSR0 containing the base address, and
   739                           ;	WREG with the size to clear
   740                           
   741  049C  0064               	clrwdt	;clear the watchdog before getting into this loop
   742  049D                     clrloop0:
   743  049D  0180               	clrf	0	;clear RAM location pointed to by FSR
   744  049E  3101               	addfsr 0,1
   745  049F  0B89               	decfsz	9,f	;Have we reached the end of clearing yet?
   746  04A0  2C9D               	goto	clrloop0	;have we reached the end yet?
   747  04A1  3400               	retlw	0	;all done for this memory range, return
   748                           
   749                           	psect	cstackCOMMON
   750  0070                     __pcstackCOMMON:
   751  0070                     ?_portinit:
   752  0070                     ??_portinit:	
   753                           ; 1 bytes @ 0x0
   754                           
   755  0070                     ?_zenoff:	
   756                           ; 1 bytes @ 0x0
   757                           
   758  0070                     ??_zenoff:	
   759                           ; 1 bytes @ 0x0
   760                           
   761  0070                     ?_dynam:	
   762                           ; 1 bytes @ 0x0
   763                           
   764  0070                     ?_fclr:	
   765                           ; 1 bytes @ 0x0
   766                           
   767  0070                     ?_main:	
   768                           ; 1 bytes @ 0x0
   769                           
   770  0070                     ?___lwdiv:	
   771                           ; 1 bytes @ 0x0
   772                           
   773  0070                     dynam@dig1data:	
   774                           ; 2 bytes @ 0x0
   775                           
   776  0070                     fclr@flg:	
   777                           ; 2 bytes @ 0x0
   778                           
   779  0070                     ___lwdiv@divisor:	
   780                           ; 2 bytes @ 0x0
   781                           
   782                           
   783                           ; 2 bytes @ 0x0
   784  0070                     	ds	2
   785  0072                     ??_fclr:
   786  0072                     dynam@dig2data:	
   787                           ; 1 bytes @ 0x2
   788                           
   789  0072                     ___lwdiv@dividend:	
   790                           ; 2 bytes @ 0x2
   791                           
   792                           
   793                           ; 2 bytes @ 0x2
   794  0072                     	ds	2
   795  0074                     ??___lwdiv:
   796  0074                     dynam@smdata:	
   797                           ; 1 bytes @ 0x4
   798                           
   799                           
   800                           ; 2 bytes @ 0x4
   801  0074                     	ds	1
   802  0075                     ___lwdiv@quotient:
   803                           
   804                           ; 2 bytes @ 0x5
   805  0075                     	ds	1
   806  0076                     dynam@tr:
   807                           
   808                           ; 2 bytes @ 0x6
   809  0076                     	ds	1
   810  0077                     ___lwdiv@counter:
   811                           
   812                           ; 1 bytes @ 0x7
   813  0077                     	ds	1
   814  0078                     ??_dynam:
   815  0078                     ??_waitSEG:	
   816                           ; 1 bytes @ 0x8
   817                           
   818  0078                     waitSEG@i:	
   819                           ; 1 bytes @ 0x8
   820                           
   821                           
   822                           ; 2 bytes @ 0x8
   823  0078                     	ds	2
   824  007A                     ??_main:
   825                           
   826                           	psect	cstackBANK0
   827  003E                     __pcstackBANK0:	
   828                           ; 1 bytes @ 0xA
   829                           
   830  003E                     dynam@smd:
   831                           
   832                           ; 2 bytes @ 0x0
   833  003E                     	ds	2
   834  0040                     dynam@tm:
   835                           
   836                           ; 2 bytes @ 0x2
   837  0040                     	ds	2
   838  0042                     dynam@j:
   839                           
   840                           ; 2 bytes @ 0x4
   841  0042                     	ds	2
   842  0044                     dynam@ext:
   843                           
   844                           ; 2 bytes @ 0x6
   845  0044                     	ds	2
   846  0046                     ?_waitSEG:
   847  0046                     waitSEG@seg1:	
   848                           ; 1 bytes @ 0x8
   849                           
   850                           
   851                           ; 2 bytes @ 0x8
   852  0046                     	ds	2
   853  0048                     waitSEG@seg2:
   854                           
   855                           ; 2 bytes @ 0xA
   856  0048                     	ds	2
   857  004A                     waitSEG@wt:
   858                           
   859                           ; 2 bytes @ 0xC
   860  004A                     	ds	10
   861  0054                     main@i:
   862                           
   863                           ; 2 bytes @ 0x16
   864  0054                     	ds	2
   865                           
   866                           	psect	maintext
   867  05F0                     __pmaintext:	
   868 ;;
   869 ;;Main: autosize = 0, tempsize = 0, incstack = 0, save=0
   870 ;;
   871 ;; *************** function _main *****************
   872 ;; Defined at:
   873 ;;		line 468 in file "Q3.c"
   874 ;; Parameters:    Size  Location     Type
   875 ;;		None
   876 ;; Auto vars:     Size  Location     Type
   877 ;;  i               2   22[BANK0 ] int 
   878 ;;  n               2    0        int 
   879 ;;  m               2    0        int 
   880 ;;  k               2    0        int 
   881 ;;  j               2    0        int 
   882 ;; Return value:  Size  Location     Type
   883 ;;                  1    wreg      void 
   884 ;; Registers used:
   885 ;;		wreg, fsr0l, fsr0h, fsr1l, fsr1h, status,2, status,0, pclath, cstack
   886 ;; Tracked objects:
   887 ;;		On entry : B1F/0
   888 ;;		On exit  : 0/0
   889 ;;		Unchanged: 0/0
   890 ;; Data sizes:     COMMON   BANK0   BANK1   BANK2   BANK3   BANK4   BANK5   BANK6   BANK7   BANK8   BANK9  BANK10  BANK1
      +1  BANK12
   891 ;;      Params:         0       0       0       0       0       0       0       0       0       0       0       0       
      +0       0
   892 ;;      Locals:         0      10       0       0       0       0       0       0       0       0       0       0       
      +0       0
   893 ;;      Temps:          0       0       0       0       0       0       0       0       0       0       0       0       
      +0       0
   894 ;;      Totals:         0      10       0       0       0       0       0       0       0       0       0       0       
      +0       0
   895 ;;Total ram usage:       10 bytes
   896 ;; Hardware stack levels required when called:    2
   897 ;; This function calls:
   898 ;;		_dynam
   899 ;;		_fclr
   900 ;;		_portinit
   901 ;;		_waitSEG
   902 ;;		_zenoff
   903 ;; This function is called by:
   904 ;;		Startup code after reset
   905 ;; This function uses a non-reentrant model
   906 ;;
   907                           
   908                           
   909                           ;psect for function _main
   910  05F0                     _main:
   911  05F0                     l2128:	
   912                           ;incstack = 0
   913                           ; Regs used in _main: [wreg-fsr1h+status,2+status,0+pclath+cstack]
   914                           
   915                           
   916                           ;Q3.c: 471:     OSCCON=0x7A;
   917  05F0  307A               	movlw	122
   918  05F1  0021               	movlb	1	; select bank1
   919  05F2  0099               	movwf	25	;volatile
   920  05F3                     l2130:
   921                           
   922                           ;Q3.c: 473:     portinit();
   923  05F3  3184  24C3  3185   	fcall	_portinit
   924                           
   925                           ;Q3.c: 475:     zenoff();
   926  05F6  3184  24A8  3185   	fcall	_zenoff
   927  05F9                     l2132:
   928  05F9                     l2134:
   929  05F9                     l2136:
   930  05F9                     l2138:
   931  05F9                     l2140:
   932  05F9                     l268:	
   933                           ;Q3.c: 480:     while((RA0!=1)||(RA1!=1)||(RA2!=1));
   934                           
   935  05F9  0020               	movlb	0	; select bank0
   936  05FA  1C0C               	btfss	12,0	;volatile
   937  05FB  2DFD               	goto	u1671
   938  05FC  2DFE               	goto	u1670
   939  05FD                     u1671:
   940  05FD  2DF9               	goto	l268
   941  05FE                     u1670:
   942  05FE                     l2142:
   943  05FE  1C8C               	btfss	12,1	;volatile
   944  05FF  2E01               	goto	u1681
   945  0600  2E02               	goto	u1680
   946  0601                     u1681:
   947  0601  2DF9               	goto	l268
   948  0602                     u1680:
   949  0602                     l2144:
   950  0602  1D0C               	btfss	12,2	;volatile
   951  0603  2E05               	goto	u1691
   952  0604  2E06               	goto	u1690
   953  0605                     u1691:
   954  0605  2DF9               	goto	l268
   955  0606                     u1690:
   956  0606                     l270:
   957                           
   958                           ;Q3.c: 483:     RC0=RC2=RC1=1;
   959  0606  148E               	bsf	14,1	;volatile
   960  0607  188E               	btfsc	14,1	;volatile
   961  0608  2E0A               	goto	u1701
   962  0609  2E0D               	goto	u1700
   963  060A                     u1701:
   964  060A  0020               	movlb	0	; select bank0
   965  060B  150E               	bsf	14,2	;volatile
   966  060C  2E0F               	goto	u1714
   967  060D                     u1700:
   968  060D  0020               	movlb	0	; select bank0
   969  060E  110E               	bcf	14,2	;volatile
   970  060F                     u1714:
   971  060F  190E               	btfsc	14,2	;volatile
   972  0610  2E12               	goto	u1711
   973  0611  2E15               	goto	u1710
   974  0612                     u1711:
   975  0612  0020               	movlb	0	; select bank0
   976  0613  140E               	bsf	14,0	;volatile
   977  0614  2E17               	goto	u1724
   978  0615                     u1710:
   979  0615  0020               	movlb	0	; select bank0
   980  0616  100E               	bcf	14,0	;volatile
   981  0617                     u1724:
   982  0617                     l2146:
   983                           
   984                           ;Q3.c: 486:     fclr(2);
   985  0617  3002               	movlw	2
   986  0618  00F0               	movwf	fclr@flg
   987  0619  3000               	movlw	0
   988  061A  00F1               	movwf	fclr@flg+1
   989  061B  3184  24D6  3185   	fcall	_fclr
   990  061E                     l2148:
   991                           
   992                           ;Q3.c: 491:         if(RA0 == 0){
   993  061E  0020               	movlb	0	; select bank0
   994  061F  180C               	btfsc	12,0	;volatile
   995  0620  2E22               	goto	u1731
   996  0621  2E23               	goto	u1730
   997  0622                     u1731:
   998  0622  2E1E               	goto	l2148
   999  0623                     u1730:
  1000  0623                     l276:	
  1001                           ;Q3.c: 497:     while(1){
  1002                           
  1003                           
  1004                           ;Q3.c: 499:        if(RA0 == 0){
  1005  0623  180C               	btfsc	12,0	;volatile
  1006  0624  2E26               	goto	u1741
  1007  0625  2E27               	goto	u1740
  1008  0626                     u1741:
  1009  0626  2E23               	goto	l276
  1010  0627                     u1740:
  1011  0627                     l2152:
  1012                           
  1013                           ;Q3.c: 500:            for(i = 9;i>=0;i--){
  1014  0627  3009               	movlw	9
  1015  0628  00D4               	movwf	main@i
  1016  0629  3000               	movlw	0
  1017  062A  00D5               	movwf	main@i+1
  1018  062B                     l2158:
  1019                           
  1020                           ;Q3.c: 502:                waitSEG(num0[i],0,500);
  1021  062B  3554               	lslf	main@i,w
  1022  062C  3EC0               	addlw	(low (_num0| 0))& (0+255)
  1023  062D  0086               	movwf	6
  1024  062E  0187               	clrf	7
  1025  062F  3F40               	moviw [0]fsr1
  1026  0630  00C6               	movwf	waitSEG@seg1
  1027  0631  3F41               	moviw [1]fsr1
  1028  0632  00C7               	movwf	waitSEG@seg1+1
  1029  0633  3000               	movlw	0
  1030  0634  00C8               	movwf	waitSEG@seg2
  1031  0635  00C9               	movwf	waitSEG@seg2+1
  1032  0636  30F4               	movlw	244
  1033  0637  00CA               	movwf	waitSEG@wt
  1034  0638  3001               	movlw	1
  1035  0639  00CB               	movwf	waitSEG@wt+1
  1036  063A  3184  24F6  3185   	fcall	_waitSEG
  1037  063D                     l2160:
  1038                           
  1039                           ;Q3.c: 504:                if(RA1 == 0){
  1040  063D  0020               	movlb	0	; select bank0
  1041  063E  188C               	btfsc	12,1	;volatile
  1042  063F  2E41               	goto	u1751
  1043  0640  2E42               	goto	u1750
  1044  0641                     u1751:
  1045  0641  2E58               	goto	l2164
  1046  0642                     u1750:
  1047  0642                     l2162:
  1048                           
  1049                           ;Q3.c: 506:                        dynam(num0[i],0,0,0);
  1050  0642  0020               	movlb	0	; select bank0
  1051  0643  3554               	lslf	main@i,w
  1052  0644  3EC0               	addlw	(low (_num0| 0))& (0+255)
  1053  0645  0086               	movwf	6
  1054  0646  0187               	clrf	7
  1055  0647  3F40               	moviw [0]fsr1
  1056  0648  00F0               	movwf	dynam@dig1data
  1057  0649  3F41               	moviw [1]fsr1
  1058  064A  00F1               	movwf	dynam@dig1data+1
  1059  064B  3000               	movlw	0
  1060  064C  00F2               	movwf	dynam@dig2data
  1061  064D  00F3               	movwf	dynam@dig2data+1
  1062  064E  3000               	movlw	0
  1063  064F  00F4               	movwf	dynam@smdata
  1064  0650  00F5               	movwf	dynam@smdata+1
  1065  0651  3000               	movlw	0
  1066  0652  00F6               	movwf	dynam@tr
  1067  0653  00F7               	movwf	dynam@tr+1
  1068  0654  3186  2663  3185   	fcall	_dynam
  1069  0657  2E42               	goto	l2162
  1070  0658                     l2164:
  1071                           
  1072                           ;Q3.c: 509:            }
  1073  0658  30FF               	movlw	255
  1074  0659  07D4               	addwf	main@i,f
  1075  065A  30FF               	movlw	255
  1076  065B  3DD5               	addwfc	main@i+1,f
  1077  065C                     l2166:
  1078  065C  1FD5               	btfss	main@i+1,7
  1079  065D  2E5F               	goto	u1761
  1080  065E  2E60               	goto	u1760
  1081  065F                     u1761:
  1082  065F  2E2B               	goto	l2158
  1083  0660                     u1760:
  1084  0660  2E23               	goto	l276
  1085  0661  3180  2802         	ljmp	start
  1086  0663                     __end_of_main:
  1087                           
  1088                           	psect	text1
  1089  04A8                     __ptext1:	
  1090 ;; *************** function _zenoff *****************
  1091 ;; Defined at:
  1092 ;;		line 195 in file "Q3.c"
  1093 ;; Parameters:    Size  Location     Type
  1094 ;;		None
  1095 ;; Auto vars:     Size  Location     Type
  1096 ;;		None
  1097 ;; Return value:  Size  Location     Type
  1098 ;;                  1    wreg      void 
  1099 ;; Registers used:
  1100 ;;		status,2
  1101 ;; Tracked objects:
  1102 ;;		On entry : 0/0
  1103 ;;		On exit  : 0/0
  1104 ;;		Unchanged: 0/0
  1105 ;; Data sizes:     COMMON   BANK0   BANK1   BANK2   BANK3   BANK4   BANK5   BANK6   BANK7   BANK8   BANK9  BANK10  BANK1
      +1  BANK12
  1106 ;;      Params:         0       0       0       0       0       0       0       0       0       0       0       0       
      +0       0
  1107 ;;      Locals:         0       0       0       0       0       0       0       0       0       0       0       0       
      +0       0
  1108 ;;      Temps:          0       0       0       0       0       0       0       0       0       0       0       0       
      +0       0
  1109 ;;      Totals:         0       0       0       0       0       0       0       0       0       0       0       0       
      +0       0
  1110 ;;Total ram usage:        0 bytes
  1111 ;; Hardware stack levels used:    1
  1112 ;; This function calls:
  1113 ;;		Nothing
  1114 ;; This function is called by:
  1115 ;;		_main
  1116 ;; This function uses a non-reentrant model
  1117 ;;
  1118                           
  1119                           
  1120                           ;psect for function _zenoff
  1121  04A8                     _zenoff:
  1122  04A8                     l1806:	
  1123                           ;incstack = 0
  1124                           ; Regs used in _zenoff: [status,2]
  1125                           
  1126                           
  1127                           ;Q3.c: 197:     RC0=1;
  1128  04A8  0020               	movlb	0	; select bank0
  1129  04A9  140E               	bsf	14,0	;volatile
  1130                           
  1131                           ;Q3.c: 198:     RC1=1;
  1132  04AA  148E               	bsf	14,1	;volatile
  1133                           
  1134                           ;Q3.c: 199:     RC2=1;
  1135  04AB  150E               	bsf	14,2	;volatile
  1136  04AC                     l1808:
  1137                           
  1138                           ;Q3.c: 200:     PORTB=0x00;
  1139  04AC  018D               	clrf	13	;volatile
  1140  04AD                     l1810:
  1141                           
  1142                           ;Q3.c: 201:     RC7=0;RC7=1;RC7=0;
  1143  04AD  138E               	bcf	14,7	;volatile
  1144  04AE                     l1812:
  1145  04AE  178E               	bsf	14,7	;volatile
  1146  04AF                     l1814:
  1147  04AF  138E               	bcf	14,7	;volatile
  1148  04B0                     l108:
  1149  04B0  0008               	return
  1150  04B1                     __end_of_zenoff:
  1151                           
  1152                           	psect	text2
  1153  04F6                     __ptext2:	
  1154 ;; *************** function _waitSEG *****************
  1155 ;; Defined at:
  1156 ;;		line 451 in file "Q3.c"
  1157 ;; Parameters:    Size  Location     Type
  1158 ;;  seg1            2    8[BANK0 ] unsigned short 
  1159 ;;  seg2            2   10[BANK0 ] unsigned short 
  1160 ;;  wt              2   12[BANK0 ] unsigned short 
  1161 ;; Auto vars:     Size  Location     Type
  1162 ;;  i               2    8[COMMON] unsigned int 
  1163 ;; Return value:  Size  Location     Type
  1164 ;;                  1    wreg      void 
  1165 ;; Registers used:
  1166 ;;		wreg, fsr0l, fsr0h, status,2, status,0, pclath, cstack
  1167 ;; Tracked objects:
  1168 ;;		On entry : 0/0
  1169 ;;		On exit  : 0/0
  1170 ;;		Unchanged: 0/0
  1171 ;; Data sizes:     COMMON   BANK0   BANK1   BANK2   BANK3   BANK4   BANK5   BANK6   BANK7   BANK8   BANK9  BANK10  BANK1
      +1  BANK12
  1172 ;;      Params:         0       6       0       0       0       0       0       0       0       0       0       0       
      +0       0
  1173 ;;      Locals:         2       0       0       0       0       0       0       0       0       0       0       0       
      +0       0
  1174 ;;      Temps:          0       0       0       0       0       0       0       0       0       0       0       0       
      +0       0
  1175 ;;      Totals:         2       6       0       0       0       0       0       0       0       0       0       0       
      +0       0
  1176 ;;Total ram usage:        8 bytes
  1177 ;; Hardware stack levels used:    1
  1178 ;; Hardware stack levels required when called:    1
  1179 ;; This function calls:
  1180 ;;		___lwdiv
  1181 ;;		_dynam
  1182 ;; This function is called by:
  1183 ;;		_main
  1184 ;; This function uses a non-reentrant model
  1185 ;;
  1186                           
  1187                           
  1188                           ;psect for function _waitSEG
  1189  04F6                     _waitSEG:
  1190  04F6                     l1866:	
  1191                           ;incstack = 0
  1192                           ; Regs used in _waitSEG: [wreg-fsr0h+status,2+status,0+pclath+cstack]
  1193                           
  1194                           
  1195                           ;Q3.c: 451: void waitSEG(unsigned short seg1,unsigned short seg2,unsigned short wt);Q3.c
      +                          : 452: {;Q3.c: 453:     wt = wt / 10;
  1196  04F6  300A               	movlw	10
  1197  04F7  00F0               	movwf	___lwdiv@divisor
  1198  04F8  3000               	movlw	0
  1199  04F9  00F1               	movwf	___lwdiv@divisor+1
  1200  04FA  0020               	movlb	0	; select bank0
  1201  04FB  084B               	movf	waitSEG@wt+1,w
  1202  04FC  00F3               	movwf	___lwdiv@dividend+1
  1203  04FD  084A               	movf	waitSEG@wt,w
  1204  04FE  00F2               	movwf	___lwdiv@dividend
  1205  04FF  3185  252A  3184   	fcall	___lwdiv
  1206  0502  0871               	movf	?___lwdiv+1,w
  1207  0503  0020               	movlb	0	; select bank0
  1208  0504  00CB               	movwf	waitSEG@wt+1
  1209  0505  0870               	movf	?___lwdiv,w
  1210  0506  00CA               	movwf	waitSEG@wt
  1211  0507                     l1868:
  1212                           
  1213                           ;Q3.c: 454:     unsigned int i;;Q3.c: 455:     for(i=wt;i>0;--i){
  1214  0507  084B               	movf	waitSEG@wt+1,w
  1215  0508  00F9               	movwf	waitSEG@i+1
  1216  0509  084A               	movf	waitSEG@wt,w
  1217  050A  00F8               	movwf	waitSEG@i
  1218  050B                     l1870:
  1219  050B  0878               	movf	waitSEG@i,w
  1220  050C  0479               	iorwf	waitSEG@i+1,w
  1221  050D  1D03               	btfss	3,2
  1222  050E  2D10               	goto	u1291
  1223  050F  2D11               	goto	u1290
  1224  0510                     u1291:
  1225  0510  2D12               	goto	l1874
  1226  0511                     u1290:
  1227  0511  2D29               	goto	l258
  1228  0512                     l1874:
  1229                           
  1230                           ;Q3.c: 456:         dynam(seg1,seg2,0,0);
  1231  0512  0020               	movlb	0	; select bank0
  1232  0513  0847               	movf	waitSEG@seg1+1,w
  1233  0514  00F1               	movwf	dynam@dig1data+1
  1234  0515  0846               	movf	waitSEG@seg1,w
  1235  0516  00F0               	movwf	dynam@dig1data
  1236  0517  0849               	movf	waitSEG@seg2+1,w
  1237  0518  00F3               	movwf	dynam@dig2data+1
  1238  0519  0848               	movf	waitSEG@seg2,w
  1239  051A  00F2               	movwf	dynam@dig2data
  1240  051B  3000               	movlw	0
  1241  051C  00F4               	movwf	dynam@smdata
  1242  051D  00F5               	movwf	dynam@smdata+1
  1243  051E  3000               	movlw	0
  1244  051F  00F6               	movwf	dynam@tr
  1245  0520  00F7               	movwf	dynam@tr+1
  1246  0521  3186  2663  3184   	fcall	_dynam
  1247  0524                     l1876:
  1248                           
  1249                           ;Q3.c: 457:     }
  1250  0524  3001               	movlw	1
  1251  0525  02F8               	subwf	waitSEG@i,f
  1252  0526  3000               	movlw	0
  1253  0527  3BF9               	subwfb	waitSEG@i+1,f
  1254  0528  2D0B               	goto	l1870
  1255  0529                     l258:
  1256  0529  0008               	return
  1257  052A                     __end_of_waitSEG:
  1258                           
  1259                           	psect	text3
  1260  0663                     __ptext3:	
  1261 ;; *************** function _dynam *****************
  1262 ;; Defined at:
  1263 ;;		line 206 in file "Q3.c"
  1264 ;; Parameters:    Size  Location     Type
  1265 ;;  dig1data        2    0[COMMON] unsigned short 
  1266 ;;  dig2data        2    2[COMMON] unsigned short 
  1267 ;;  smdata          2    4[COMMON] unsigned short 
  1268 ;;  tr              2    6[COMMON] unsigned int 
  1269 ;; Auto vars:     Size  Location     Type
  1270 ;;  ext             2    6[BANK0 ] unsigned short 
  1271 ;;  j               2    4[BANK0 ] unsigned int 
  1272 ;;  tm              2    2[BANK0 ] unsigned int 
  1273 ;;  smd             2    0[BANK0 ] unsigned short 
  1274 ;; Return value:  Size  Location     Type
  1275 ;;                  1    wreg      void 
  1276 ;; Registers used:
  1277 ;;		wreg, fsr0l, fsr0h, status,2, status,0
  1278 ;; Tracked objects:
  1279 ;;		On entry : 0/0
  1280 ;;		On exit  : 0/0
  1281 ;;		Unchanged: 0/0
  1282 ;; Data sizes:     COMMON   BANK0   BANK1   BANK2   BANK3   BANK4   BANK5   BANK6   BANK7   BANK8   BANK9  BANK10  BANK1
      +1  BANK12
  1283 ;;      Params:         8       0       0       0       0       0       0       0       0       0       0       0       
      +0       0
  1284 ;;      Locals:         0       8       0       0       0       0       0       0       0       0       0       0       
      +0       0
  1285 ;;      Temps:          0       0       0       0       0       0       0       0       0       0       0       0       
      +0       0
  1286 ;;      Totals:         8       8       0       0       0       0       0       0       0       0       0       0       
      +0       0
  1287 ;;Total ram usage:       16 bytes
  1288 ;; Hardware stack levels used:    1
  1289 ;; This function calls:
  1290 ;;		Nothing
  1291 ;; This function is called by:
  1292 ;;		_waitSEG
  1293 ;;		_main
  1294 ;;		_clear
  1295 ;;		_motor
  1296 ;; This function uses a non-reentrant model
  1297 ;;
  1298                           
  1299                           
  1300                           ;psect for function _dynam
  1301  0663                     _dynam:
  1302  0663                     l1576:	
  1303                           ;incstack = 0
  1304                           ; Regs used in _dynam: [wreg-fsr0h+status,2+status,0]
  1305                           
  1306  0663  0020               	movlb	0	; select bank0
  1307  0664  01C0               	clrf	dynam@tm
  1308  0665  01C1               	clrf	dynam@tm+1
  1309                           
  1310                           ;Q3.c: 209:     unsigned short ext=0,smd=0;
  1311  0666  01C4               	clrf	dynam@ext
  1312  0667  01C5               	clrf	dynam@ext+1
  1313  0668  01BE               	clrf	dynam@smd
  1314  0669  01BF               	clrf	dynam@smd+1
  1315  066A                     l1578:
  1316                           
  1317                           ;Q3.c: 210:     RC7=0;
  1318  066A  138E               	bcf	14,7	;volatile
  1319  066B                     l1580:
  1320                           
  1321                           ;Q3.c: 211:     PORTB=dig1data;
  1322  066B  0870               	movf	dynam@dig1data,w
  1323  066C  008D               	movwf	13	;volatile
  1324  066D                     l1582:
  1325                           
  1326                           ;Q3.c: 212:     RC5=0;RC6=1;
  1327  066D  128E               	bcf	14,5	;volatile
  1328  066E                     l1584:
  1329  066E  170E               	bsf	14,6	;volatile
  1330  066F                     l1586:
  1331                           
  1332                           ;Q3.c: 213:     if(tr==5){tm=4000;}
  1333  066F  3005               	movlw	5
  1334  0670  0676               	xorwf	dynam@tr,w
  1335  0671  0477               	iorwf	dynam@tr+1,w
  1336  0672  1D03               	btfss	3,2
  1337  0673  2E75               	goto	u911
  1338  0674  2E76               	goto	u910
  1339  0675                     u911:
  1340  0675  2E7B               	goto	l1590
  1341  0676                     u910:
  1342  0676                     l1588:
  1343  0676  30A0               	movlw	160
  1344  0677  00C0               	movwf	dynam@tm
  1345  0678  300F               	movlw	15
  1346  0679  00C1               	movwf	dynam@tm+1
  1347  067A  2E7F               	goto	l112
  1348  067B                     l1590:
  1349  067B  30D0               	movlw	208
  1350  067C  00C0               	movwf	dynam@tm
  1351  067D  3007               	movlw	7
  1352  067E  00C1               	movwf	dynam@tm+1
  1353  067F                     l112:
  1354                           
  1355                           ;Q3.c: 215:     for(j=tm;j>0;--j);
  1356  067F  0841               	movf	dynam@tm+1,w
  1357  0680  00C3               	movwf	dynam@j+1
  1358  0681  0840               	movf	dynam@tm,w
  1359  0682  00C2               	movwf	dynam@j
  1360  0683                     l1592:
  1361  0683  0842               	movf	dynam@j,w
  1362  0684  0443               	iorwf	dynam@j+1,w
  1363  0685  1D03               	btfss	3,2
  1364  0686  2E88               	goto	u921
  1365  0687  2E89               	goto	u920
  1366  0688                     u921:
  1367  0688  2E8A               	goto	l1596
  1368  0689                     u920:
  1369  0689  2E8F               	goto	l114
  1370  068A                     l1596:
  1371  068A  3001               	movlw	1
  1372  068B  02C2               	subwf	dynam@j,f
  1373  068C  3000               	movlw	0
  1374  068D  3BC3               	subwfb	dynam@j+1,f
  1375  068E  2E83               	goto	l1592
  1376  068F                     l114:
  1377                           
  1378                           ;Q3.c: 216:     RC5=0;RC6=0;
  1379  068F  128E               	bcf	14,5	;volatile
  1380  0690  130E               	bcf	14,6	;volatile
  1381  0691                     l1600:
  1382                           
  1383                           ;Q3.c: 217:     PORTB=dig2data;
  1384  0691  0872               	movf	dynam@dig2data,w
  1385  0692  008D               	movwf	13	;volatile
  1386  0693                     l1602:
  1387                           
  1388                           ;Q3.c: 218:     RC6=0;RC5=1;
  1389  0693  130E               	bcf	14,6	;volatile
  1390  0694                     l1604:
  1391  0694  168E               	bsf	14,5	;volatile
  1392  0695                     l1606:
  1393                           
  1394                           ;Q3.c: 219:     if(tr==5){tm=4000;}
  1395  0695  3005               	movlw	5
  1396  0696  0676               	xorwf	dynam@tr,w
  1397  0697  0477               	iorwf	dynam@tr+1,w
  1398  0698  1D03               	btfss	3,2
  1399  0699  2E9B               	goto	u931
  1400  069A  2E9C               	goto	u930
  1401  069B                     u931:
  1402  069B  2EA1               	goto	l1610
  1403  069C                     u930:
  1404  069C                     l1608:
  1405  069C  30A0               	movlw	160
  1406  069D  00C0               	movwf	dynam@tm
  1407  069E  300F               	movlw	15
  1408  069F  00C1               	movwf	dynam@tm+1
  1409  06A0  2EA5               	goto	l116
  1410  06A1                     l1610:
  1411  06A1  30D0               	movlw	208
  1412  06A2  00C0               	movwf	dynam@tm
  1413  06A3  3007               	movlw	7
  1414  06A4  00C1               	movwf	dynam@tm+1
  1415  06A5                     l116:
  1416                           
  1417                           ;Q3.c: 221:     for(j=tm;j>0;--j);
  1418  06A5  0841               	movf	dynam@tm+1,w
  1419  06A6  00C3               	movwf	dynam@j+1
  1420  06A7  0840               	movf	dynam@tm,w
  1421  06A8  00C2               	movwf	dynam@j
  1422  06A9                     l1612:
  1423  06A9  0842               	movf	dynam@j,w
  1424  06AA  0443               	iorwf	dynam@j+1,w
  1425  06AB  1D03               	btfss	3,2
  1426  06AC  2EAE               	goto	u941
  1427  06AD  2EAF               	goto	u940
  1428  06AE                     u941:
  1429  06AE  2EB0               	goto	l1616
  1430  06AF                     u940:
  1431  06AF  2EB5               	goto	l118
  1432  06B0                     l1616:
  1433  06B0  3001               	movlw	1
  1434  06B1  02C2               	subwf	dynam@j,f
  1435  06B2  3000               	movlw	0
  1436  06B3  3BC3               	subwfb	dynam@j+1,f
  1437  06B4  2EA9               	goto	l1612
  1438  06B5                     l118:
  1439                           
  1440                           ;Q3.c: 222:     RC5=0;RC6=0;
  1441  06B5  128E               	bcf	14,5	;volatile
  1442  06B6  130E               	bcf	14,6	;volatile
  1443                           
  1444                           ;Q3.c: 223:     switch(smdata){
  1445  06B7  2FBC               	goto	l1726
  1446  06B8                     l1620:
  1447                           
  1448                           ;Q3.c: 225:                 PORTB=0x00;smd=(0x01|0x02|0x04|0x08|0x10|0x20);
  1449  06B8  018D               	clrf	13	;volatile
  1450  06B9                     l1622:
  1451  06B9                     l1624:
  1452                           
  1453                           ;Q3.c: 226:                 RC7=0;RC7=1;RC7=0;
  1454  06B9  138E               	bcf	14,7	;volatile
  1455  06BA                     l1626:
  1456  06BA  178E               	bsf	14,7	;volatile
  1457  06BB                     l1628:
  1458  06BB  138E               	bcf	14,7	;volatile
  1459                           
  1460                           ;Q3.c: 227:                 break;
  1461  06BC  2FCC               	goto	l135
  1462  06BD                     l1630:
  1463                           
  1464                           ;Q3.c: 229:                 if(flg==1)cw=0;flg=0;
  1465  06BD  0334               	decf	_flg,w
  1466  06BE  0435               	iorwf	_flg+1,w
  1467  06BF  1D03               	btfss	3,2
  1468  06C0  2EC2               	goto	u951
  1469  06C1  2EC3               	goto	u950
  1470  06C2                     u951:
  1471  06C2  2EC5               	goto	l123
  1472  06C3                     u950:
  1473  06C3                     l1632:
  1474  06C3  01FA               	clrf	_cw
  1475  06C4  01FB               	clrf	_cw+1
  1476  06C5                     l123:
  1477  06C5  01B4               	clrf	_flg
  1478  06C6  01B5               	clrf	_flg+1
  1479  06C7                     l1634:
  1480                           
  1481                           ;Q3.c: 230:                 if((cw==0)&&(ext==0)){cw=1;ccw=0;ext=1;PORTB=smd=0x09;}
  1482  06C7  087A               	movf	_cw,w
  1483  06C8  047B               	iorwf	_cw+1,w
  1484  06C9  1D03               	btfss	3,2
  1485  06CA  2ECC               	goto	u961
  1486  06CB  2ECD               	goto	u960
  1487  06CC                     u961:
  1488  06CC  2EE3               	goto	l1646
  1489  06CD                     u960:
  1490  06CD                     l1636:
  1491  06CD  0844               	movf	dynam@ext,w
  1492  06CE  0445               	iorwf	dynam@ext+1,w
  1493  06CF  1D03               	btfss	3,2
  1494  06D0  2ED2               	goto	u971
  1495  06D1  2ED3               	goto	u970
  1496  06D2                     u971:
  1497  06D2  2EE3               	goto	l1646
  1498  06D3                     u970:
  1499  06D3                     l1638:
  1500  06D3  3001               	movlw	1
  1501  06D4  00FA               	movwf	_cw
  1502  06D5  3000               	movlw	0
  1503  06D6  00FB               	movwf	_cw+1
  1504  06D7                     l1640:
  1505  06D7  01B2               	clrf	_ccw
  1506  06D8  01B3               	clrf	_ccw+1
  1507  06D9                     l1642:
  1508  06D9  3001               	movlw	1
  1509  06DA  00C4               	movwf	dynam@ext
  1510  06DB  3000               	movlw	0
  1511  06DC  00C5               	movwf	dynam@ext+1
  1512  06DD                     l1644:
  1513  06DD  3009               	movlw	9
  1514  06DE  00BE               	movwf	dynam@smd
  1515  06DF  3000               	movlw	0
  1516  06E0  00BF               	movwf	dynam@smd+1
  1517  06E1  083E               	movf	dynam@smd,w
  1518  06E2  008D               	movwf	13	;volatile
  1519  06E3                     l1646:
  1520                           
  1521                           ;Q3.c: 231:                 if((cw==1)&&(ext==0)){cw=2;ccw=3;ext=1;PORTB=smd=0x0C;}
  1522  06E3  037A               	decf	_cw,w
  1523  06E4  047B               	iorwf	_cw+1,w
  1524  06E5  1D03               	btfss	3,2
  1525  06E6  2EE8               	goto	u981
  1526  06E7  2EE9               	goto	u980
  1527  06E8                     u981:
  1528  06E8  2F01               	goto	l1652
  1529  06E9                     u980:
  1530  06E9                     l1648:
  1531  06E9  0844               	movf	dynam@ext,w
  1532  06EA  0445               	iorwf	dynam@ext+1,w
  1533  06EB  1D03               	btfss	3,2
  1534  06EC  2EEE               	goto	u991
  1535  06ED  2EEF               	goto	u990
  1536  06EE                     u991:
  1537  06EE  2F01               	goto	l1652
  1538  06EF                     u990:
  1539  06EF                     l1650:
  1540  06EF  3002               	movlw	2
  1541  06F0  00FA               	movwf	_cw
  1542  06F1  3000               	movlw	0
  1543  06F2  00FB               	movwf	_cw+1
  1544  06F3  3003               	movlw	3
  1545  06F4  00B2               	movwf	_ccw
  1546  06F5  3000               	movlw	0
  1547  06F6  00B3               	movwf	_ccw+1
  1548  06F7  3001               	movlw	1
  1549  06F8  00C4               	movwf	dynam@ext
  1550  06F9  3000               	movlw	0
  1551  06FA  00C5               	movwf	dynam@ext+1
  1552  06FB  300C               	movlw	12
  1553  06FC  00BE               	movwf	dynam@smd
  1554  06FD  3000               	movlw	0
  1555  06FE  00BF               	movwf	dynam@smd+1
  1556  06FF  083E               	movf	dynam@smd,w
  1557  0700  008D               	movwf	13	;volatile
  1558  0701                     l1652:
  1559                           
  1560                           ;Q3.c: 232:                 if((cw==2)&&(ext==0)){cw=3;ccw=2;ext=1;PORTB=smd=0x06;}
  1561  0701  3002               	movlw	2
  1562  0702  067A               	xorwf	_cw,w
  1563  0703  047B               	iorwf	_cw+1,w
  1564  0704  1D03               	btfss	3,2
  1565  0705  2F07               	goto	u1001
  1566  0706  2F08               	goto	u1000
  1567  0707                     u1001:
  1568  0707  2F20               	goto	l1658
  1569  0708                     u1000:
  1570  0708                     l1654:
  1571  0708  0844               	movf	dynam@ext,w
  1572  0709  0445               	iorwf	dynam@ext+1,w
  1573  070A  1D03               	btfss	3,2
  1574  070B  2F0D               	goto	u1011
  1575  070C  2F0E               	goto	u1010
  1576  070D                     u1011:
  1577  070D  2F20               	goto	l1658
  1578  070E                     u1010:
  1579  070E                     l1656:
  1580  070E  3003               	movlw	3
  1581  070F  00FA               	movwf	_cw
  1582  0710  3000               	movlw	0
  1583  0711  00FB               	movwf	_cw+1
  1584  0712  3002               	movlw	2
  1585  0713  00B2               	movwf	_ccw
  1586  0714  3000               	movlw	0
  1587  0715  00B3               	movwf	_ccw+1
  1588  0716  3001               	movlw	1
  1589  0717  00C4               	movwf	dynam@ext
  1590  0718  3000               	movlw	0
  1591  0719  00C5               	movwf	dynam@ext+1
  1592  071A  3006               	movlw	6
  1593  071B  00BE               	movwf	dynam@smd
  1594  071C  3000               	movlw	0
  1595  071D  00BF               	movwf	dynam@smd+1
  1596  071E  083E               	movf	dynam@smd,w
  1597  071F  008D               	movwf	13	;volatile
  1598  0720                     l1658:
  1599                           
  1600                           ;Q3.c: 233:                 if((cw==3)&&(ext==0)){cw=0;ccw=1;ext=1;PORTB=smd=0x03;}
  1601  0720  3003               	movlw	3
  1602  0721  067A               	xorwf	_cw,w
  1603  0722  047B               	iorwf	_cw+1,w
  1604  0723  1D03               	btfss	3,2
  1605  0724  2F26               	goto	u1021
  1606  0725  2F27               	goto	u1020
  1607  0726                     u1021:
  1608  0726  2EB9               	goto	l1624
  1609  0727                     u1020:
  1610  0727                     l1660:
  1611  0727  0844               	movf	dynam@ext,w
  1612  0728  0445               	iorwf	dynam@ext+1,w
  1613  0729  1D03               	btfss	3,2
  1614  072A  2F2C               	goto	u1031
  1615  072B  2F2D               	goto	u1030
  1616  072C                     u1031:
  1617  072C  2EB9               	goto	l1624
  1618  072D                     u1030:
  1619  072D                     l1662:
  1620  072D  01FA               	clrf	_cw
  1621  072E  01FB               	clrf	_cw+1
  1622  072F                     l1664:
  1623  072F  3001               	movlw	1
  1624  0730  00B2               	movwf	_ccw
  1625  0731  3000               	movlw	0
  1626  0732  00B3               	movwf	_ccw+1
  1627  0733                     l1666:
  1628  0733                     l1668:
  1629  0733  3003               	movlw	3
  1630  0734  00BE               	movwf	dynam@smd
  1631  0735  3000               	movlw	0
  1632  0736  00BF               	movwf	dynam@smd+1
  1633  0737  083E               	movf	dynam@smd,w
  1634  0738  008D               	movwf	13	;volatile
  1635  0739  2EB9               	goto	l1624
  1636  073A                     l1676:
  1637                           
  1638                           ;Q3.c: 237:                 if(flg==1)ccw=0;flg=0;
  1639  073A  0334               	decf	_flg,w
  1640  073B  0435               	iorwf	_flg+1,w
  1641  073C  1D03               	btfss	3,2
  1642  073D  2F3F               	goto	u1041
  1643  073E  2F40               	goto	u1040
  1644  073F                     u1041:
  1645  073F  2F42               	goto	l129
  1646  0740                     u1040:
  1647  0740                     l1678:
  1648  0740  01B2               	clrf	_ccw
  1649  0741  01B3               	clrf	_ccw+1
  1650  0742                     l129:
  1651  0742  01B4               	clrf	_flg
  1652  0743  01B5               	clrf	_flg+1
  1653  0744                     l1680:
  1654                           
  1655                           ;Q3.c: 238:                 if((ccw==0)&&(ext==0)){ccw=1;cw=0;ext=1;PORTB=smd=0x03;}
  1656  0744  0832               	movf	_ccw,w
  1657  0745  0433               	iorwf	_ccw+1,w
  1658  0746  1D03               	btfss	3,2
  1659  0747  2F49               	goto	u1051
  1660  0748  2F4A               	goto	u1050
  1661  0749                     u1051:
  1662  0749  2F60               	goto	l1692
  1663  074A                     u1050:
  1664  074A                     l1682:
  1665  074A  0844               	movf	dynam@ext,w
  1666  074B  0445               	iorwf	dynam@ext+1,w
  1667  074C  1D03               	btfss	3,2
  1668  074D  2F4F               	goto	u1061
  1669  074E  2F50               	goto	u1060
  1670  074F                     u1061:
  1671  074F  2F60               	goto	l1692
  1672  0750                     u1060:
  1673  0750                     l1684:
  1674  0750  3001               	movlw	1
  1675  0751  00B2               	movwf	_ccw
  1676  0752  3000               	movlw	0
  1677  0753  00B3               	movwf	_ccw+1
  1678  0754                     l1686:
  1679  0754  01FA               	clrf	_cw
  1680  0755  01FB               	clrf	_cw+1
  1681  0756                     l1688:
  1682  0756  3001               	movlw	1
  1683  0757  00C4               	movwf	dynam@ext
  1684  0758  3000               	movlw	0
  1685  0759  00C5               	movwf	dynam@ext+1
  1686  075A                     l1690:
  1687  075A  3003               	movlw	3
  1688  075B  00BE               	movwf	dynam@smd
  1689  075C  3000               	movlw	0
  1690  075D  00BF               	movwf	dynam@smd+1
  1691  075E  083E               	movf	dynam@smd,w
  1692  075F  008D               	movwf	13	;volatile
  1693  0760                     l1692:
  1694                           
  1695                           ;Q3.c: 239:                 if((ccw==1)&&(ext==0)){ccw=2;cw=3;ext=1;PORTB=smd=0x06;}
  1696  0760  0332               	decf	_ccw,w
  1697  0761  0433               	iorwf	_ccw+1,w
  1698  0762  1D03               	btfss	3,2
  1699  0763  2F65               	goto	u1071
  1700  0764  2F66               	goto	u1070
  1701  0765                     u1071:
  1702  0765  2F7E               	goto	l1698
  1703  0766                     u1070:
  1704  0766                     l1694:
  1705  0766  0844               	movf	dynam@ext,w
  1706  0767  0445               	iorwf	dynam@ext+1,w
  1707  0768  1D03               	btfss	3,2
  1708  0769  2F6B               	goto	u1081
  1709  076A  2F6C               	goto	u1080
  1710  076B                     u1081:
  1711  076B  2F7E               	goto	l1698
  1712  076C                     u1080:
  1713  076C                     l1696:
  1714  076C  3002               	movlw	2
  1715  076D  00B2               	movwf	_ccw
  1716  076E  3000               	movlw	0
  1717  076F  00B3               	movwf	_ccw+1
  1718  0770  3003               	movlw	3
  1719  0771  00FA               	movwf	_cw
  1720  0772  3000               	movlw	0
  1721  0773  00FB               	movwf	_cw+1
  1722  0774  3001               	movlw	1
  1723  0775  00C4               	movwf	dynam@ext
  1724  0776  3000               	movlw	0
  1725  0777  00C5               	movwf	dynam@ext+1
  1726  0778  3006               	movlw	6
  1727  0779  00BE               	movwf	dynam@smd
  1728  077A  3000               	movlw	0
  1729  077B  00BF               	movwf	dynam@smd+1
  1730  077C  083E               	movf	dynam@smd,w
  1731  077D  008D               	movwf	13	;volatile
  1732  077E                     l1698:
  1733                           
  1734                           ;Q3.c: 240:                 if((ccw==2)&&(ext==0)){ccw=3;cw=2;ext=1;PORTB=smd=0x0C;}
  1735  077E  3002               	movlw	2
  1736  077F  0632               	xorwf	_ccw,w
  1737  0780  0433               	iorwf	_ccw+1,w
  1738  0781  1D03               	btfss	3,2
  1739  0782  2F84               	goto	u1091
  1740  0783  2F85               	goto	u1090
  1741  0784                     u1091:
  1742  0784  2F9D               	goto	l1704
  1743  0785                     u1090:
  1744  0785                     l1700:
  1745  0785  0844               	movf	dynam@ext,w
  1746  0786  0445               	iorwf	dynam@ext+1,w
  1747  0787  1D03               	btfss	3,2
  1748  0788  2F8A               	goto	u1101
  1749  0789  2F8B               	goto	u1100
  1750  078A                     u1101:
  1751  078A  2F9D               	goto	l1704
  1752  078B                     u1100:
  1753  078B                     l1702:
  1754  078B  3003               	movlw	3
  1755  078C  00B2               	movwf	_ccw
  1756  078D  3000               	movlw	0
  1757  078E  00B3               	movwf	_ccw+1
  1758  078F  3002               	movlw	2
  1759  0790  00FA               	movwf	_cw
  1760  0791  3000               	movlw	0
  1761  0792  00FB               	movwf	_cw+1
  1762  0793  3001               	movlw	1
  1763  0794  00C4               	movwf	dynam@ext
  1764  0795  3000               	movlw	0
  1765  0796  00C5               	movwf	dynam@ext+1
  1766  0797  300C               	movlw	12
  1767  0798  00BE               	movwf	dynam@smd
  1768  0799  3000               	movlw	0
  1769  079A  00BF               	movwf	dynam@smd+1
  1770  079B  083E               	movf	dynam@smd,w
  1771  079C  008D               	movwf	13	;volatile
  1772  079D                     l1704:
  1773                           
  1774                           ;Q3.c: 241:                 if((ccw==3)&&(ext==0)){ccw=0;cw=1;ext=1;PORTB=smd=0x09;}
  1775  079D  3003               	movlw	3
  1776  079E  0632               	xorwf	_ccw,w
  1777  079F  0433               	iorwf	_ccw+1,w
  1778  07A0  1D03               	btfss	3,2
  1779  07A1  2FA3               	goto	u1111
  1780  07A2  2FA4               	goto	u1110
  1781  07A3                     u1111:
  1782  07A3  2EB9               	goto	l1624
  1783  07A4                     u1110:
  1784  07A4                     l1706:
  1785  07A4  0844               	movf	dynam@ext,w
  1786  07A5  0445               	iorwf	dynam@ext+1,w
  1787  07A6  1D03               	btfss	3,2
  1788  07A7  2FA9               	goto	u1121
  1789  07A8  2FAA               	goto	u1120
  1790  07A9                     u1121:
  1791  07A9  2EB9               	goto	l1624
  1792  07AA                     u1120:
  1793  07AA                     l1708:
  1794  07AA  01B2               	clrf	_ccw
  1795  07AB  01B3               	clrf	_ccw+1
  1796  07AC                     l1710:
  1797  07AC  3001               	movlw	1
  1798  07AD  00FA               	movwf	_cw
  1799  07AE  3000               	movlw	0
  1800  07AF  00FB               	movwf	_cw+1
  1801  07B0                     l1712:
  1802  07B0                     l1714:
  1803  07B0  3009               	movlw	9
  1804  07B1  00BE               	movwf	dynam@smd
  1805  07B2  3000               	movlw	0
  1806  07B3  00BF               	movwf	dynam@smd+1
  1807  07B4  083E               	movf	dynam@smd,w
  1808  07B5  008D               	movwf	13	;volatile
  1809  07B6  2EB9               	goto	l1624
  1810  07B7                     l1722:
  1811                           
  1812                           ;Q3.c: 245:                 cw=ccw=0;
  1813  07B7  01B2               	clrf	_ccw
  1814  07B8  01B3               	clrf	_ccw+1
  1815  07B9  01FA               	clrf	_cw
  1816  07BA  01FB               	clrf	_cw+1
  1817                           
  1818                           ;Q3.c: 246:                 break;
  1819  07BB  2FCC               	goto	l135
  1820  07BC                     l1726:
  1821                           
  1822                           ; Switch on 2 bytes has been partitioned into a top level switch of size 1, and 1 sub-sw
      +                          itches
  1823                           ; Switch size 1, requested type "simple"
  1824                           ; Number of cases is 1, Range of values is 0 to 0
  1825                           ; switch strategies available:
  1826                           ; Name         Instructions Cycles
  1827                           ; simple_byte            4     3 (average)
  1828                           ; direct_byte            8     6 (fixed)
  1829                           ; jumptable            260     6 (fixed)
  1830                           ;	Chosen strategy is simple_byte
  1831  07BC  0875               	movf	dynam@smdata+1,w
  1832  07BD  3A00               	xorlw	0	; case 0
  1833  07BE  1903               	skipnz
  1834  07BF  2FC1               	goto	l2304
  1835  07C0  2FB7               	goto	l1722
  1836  07C1                     l2304:
  1837                           
  1838                           ; Switch size 1, requested type "simple"
  1839                           ; Number of cases is 3, Range of values is 0 to 2
  1840                           ; switch strategies available:
  1841                           ; Name         Instructions Cycles
  1842                           ; simple_byte           10     6 (average)
  1843                           ; direct_byte           12     6 (fixed)
  1844                           ; jumptable            260     6 (fixed)
  1845                           ;	Chosen strategy is simple_byte
  1846  07C1  0874               	movf	dynam@smdata,w
  1847  07C2  3A00               	xorlw	0	; case 0
  1848  07C3  1903               	skipnz
  1849  07C4  2EB8               	goto	l1620
  1850  07C5  3A01               	xorlw	1	; case 1
  1851  07C6  1903               	skipnz
  1852  07C7  2EBD               	goto	l1630
  1853  07C8  3A03               	xorlw	3	; case 2
  1854  07C9  1903               	skipnz
  1855  07CA  2F3A               	goto	l1676
  1856  07CB  2FB7               	goto	l1722
  1857  07CC                     l135:
  1858  07CC  0008               	return
  1859  07CD                     __end_of_dynam:
  1860                           
  1861                           	psect	text4
  1862  052A                     __ptext4:	
  1863 ;; *************** function ___lwdiv *****************
  1864 ;; Defined at:
  1865 ;;		line 5 in file "C:\Program Files\Microchip\xc8\v2.31\pic\sources\c99\common\lwdiv.c"
  1866 ;; Parameters:    Size  Location     Type
  1867 ;;  divisor         2    0[COMMON] unsigned int 
  1868 ;;  dividend        2    2[COMMON] unsigned int 
  1869 ;; Auto vars:     Size  Location     Type
  1870 ;;  quotient        2    5[COMMON] unsigned int 
  1871 ;;  counter         1    7[COMMON] unsigned char 
  1872 ;; Return value:  Size  Location     Type
  1873 ;;                  2    0[COMMON] unsigned int 
  1874 ;; Registers used:
  1875 ;;		wreg, status,2, status,0
  1876 ;; Tracked objects:
  1877 ;;		On entry : 0/0
  1878 ;;		On exit  : 0/0
  1879 ;;		Unchanged: 0/0
  1880 ;; Data sizes:     COMMON   BANK0   BANK1   BANK2   BANK3   BANK4   BANK5   BANK6   BANK7   BANK8   BANK9  BANK10  BANK1
      +1  BANK12
  1881 ;;      Params:         4       0       0       0       0       0       0       0       0       0       0       0       
      +0       0
  1882 ;;      Locals:         3       0       0       0       0       0       0       0       0       0       0       0       
      +0       0
  1883 ;;      Temps:          1       0       0       0       0       0       0       0       0       0       0       0       
      +0       0
  1884 ;;      Totals:         8       0       0       0       0       0       0       0       0       0       0       0       
      +0       0
  1885 ;;Total ram usage:        8 bytes
  1886 ;; Hardware stack levels used:    1
  1887 ;; This function calls:
  1888 ;;		Nothing
  1889 ;; This function is called by:
  1890 ;;		_waitSEG
  1891 ;; This function uses a non-reentrant model
  1892 ;;
  1893                           
  1894                           
  1895                           ;psect for function ___lwdiv
  1896  052A                     ___lwdiv:
  1897  052A                     l1750:	
  1898                           ;incstack = 0
  1899                           ; Regs used in ___lwdiv: [wreg+status,2+status,0]
  1900                           
  1901  052A  01F5               	clrf	___lwdiv@quotient
  1902  052B  01F6               	clrf	___lwdiv@quotient+1
  1903  052C                     l1752:
  1904  052C  0870               	movf	___lwdiv@divisor,w
  1905  052D  0471               	iorwf	___lwdiv@divisor+1,w
  1906  052E  1903               	btfsc	3,2
  1907  052F  2D31               	goto	u1151
  1908  0530  2D32               	goto	u1150
  1909  0531                     u1151:
  1910  0531  2D61               	goto	l1772
  1911  0532                     u1150:
  1912  0532                     l1754:
  1913  0532  01F7               	clrf	___lwdiv@counter
  1914  0533  0AF7               	incf	___lwdiv@counter,f
  1915  0534  2D3E               	goto	l1760
  1916  0535                     l1756:
  1917  0535  3001               	movlw	1
  1918  0536                     u1165:
  1919  0536  35F0               	lslf	___lwdiv@divisor,f
  1920  0537  0DF1               	rlf	___lwdiv@divisor+1,f
  1921  0538  0B89               	decfsz	9,f
  1922  0539  2D36               	goto	u1165
  1923  053A                     l1758:
  1924  053A  3001               	movlw	1
  1925  053B  00F4               	movwf	??___lwdiv
  1926  053C  0874               	movf	??___lwdiv,w
  1927  053D  07F7               	addwf	___lwdiv@counter,f
  1928  053E                     l1760:
  1929  053E  1FF1               	btfss	___lwdiv@divisor+1,7
  1930  053F  2D41               	goto	u1171
  1931  0540  2D42               	goto	u1170
  1932  0541                     u1171:
  1933  0541  2D35               	goto	l1756
  1934  0542                     u1170:
  1935  0542                     l1762:
  1936  0542  3001               	movlw	1
  1937  0543                     u1185:
  1938  0543  35F5               	lslf	___lwdiv@quotient,f
  1939  0544  0DF6               	rlf	___lwdiv@quotient+1,f
  1940  0545  0B89               	decfsz	9,f
  1941  0546  2D43               	goto	u1185
  1942  0547  0871               	movf	___lwdiv@divisor+1,w
  1943  0548  0273               	subwf	___lwdiv@dividend+1,w
  1944  0549  1D03               	skipz
  1945  054A  2D4D               	goto	u1195
  1946  054B  0870               	movf	___lwdiv@divisor,w
  1947  054C  0272               	subwf	___lwdiv@dividend,w
  1948  054D                     u1195:
  1949  054D  1C03               	skipc
  1950  054E  2D50               	goto	u1191
  1951  054F  2D51               	goto	u1190
  1952  0550                     u1191:
  1953  0550  2D56               	goto	l1768
  1954  0551                     u1190:
  1955  0551                     l1764:
  1956  0551  0870               	movf	___lwdiv@divisor,w
  1957  0552  02F2               	subwf	___lwdiv@dividend,f
  1958  0553  0871               	movf	___lwdiv@divisor+1,w
  1959  0554  3BF3               	subwfb	___lwdiv@dividend+1,f
  1960  0555                     l1766:
  1961  0555  1475               	bsf	___lwdiv@quotient,0
  1962  0556                     l1768:
  1963  0556  3001               	movlw	1
  1964  0557                     u1205:
  1965  0557  36F1               	lsrf	___lwdiv@divisor+1,f
  1966  0558  0CF0               	rrf	___lwdiv@divisor,f
  1967  0559  0B89               	decfsz	9,f
  1968  055A  2D57               	goto	u1205
  1969  055B                     l1770:
  1970  055B  3001               	movlw	1
  1971  055C  02F7               	subwf	___lwdiv@counter,f
  1972  055D  1D03               	btfss	3,2
  1973  055E  2D60               	goto	u1211
  1974  055F  2D61               	goto	u1210
  1975  0560                     u1211:
  1976  0560  2D42               	goto	l1762
  1977  0561                     u1210:
  1978  0561                     l1772:
  1979  0561  0876               	movf	___lwdiv@quotient+1,w
  1980  0562  00F1               	movwf	?___lwdiv+1
  1981  0563  0875               	movf	___lwdiv@quotient,w
  1982  0564  00F0               	movwf	?___lwdiv
  1983  0565                     l716:
  1984  0565  0008               	return
  1985  0566                     __end_of___lwdiv:
  1986                           
  1987                           	psect	text5
  1988  04C3                     __ptext5:	
  1989 ;; *************** function _portinit *****************
  1990 ;; Defined at:
  1991 ;;		line 160 in file "Q3.c"
  1992 ;; Parameters:    Size  Location     Type
  1993 ;;		None
  1994 ;; Auto vars:     Size  Location     Type
  1995 ;;		None
  1996 ;; Return value:  Size  Location     Type
  1997 ;;                  1    wreg      void 
  1998 ;; Registers used:
  1999 ;;		wreg, status,2
  2000 ;; Tracked objects:
  2001 ;;		On entry : 0/0
  2002 ;;		On exit  : 0/0
  2003 ;;		Unchanged: 0/0
  2004 ;; Data sizes:     COMMON   BANK0   BANK1   BANK2   BANK3   BANK4   BANK5   BANK6   BANK7   BANK8   BANK9  BANK10  BANK1
      +1  BANK12
  2005 ;;      Params:         0       0       0       0       0       0       0       0       0       0       0       0       
      +0       0
  2006 ;;      Locals:         0       0       0       0       0       0       0       0       0       0       0       0       
      +0       0
  2007 ;;      Temps:          0       0       0       0       0       0       0       0       0       0       0       0       
      +0       0
  2008 ;;      Totals:         0       0       0       0       0       0       0       0       0       0       0       0       
      +0       0
  2009 ;;Total ram usage:        0 bytes
  2010 ;; Hardware stack levels used:    1
  2011 ;; This function calls:
  2012 ;;		Nothing
  2013 ;; This function is called by:
  2014 ;;		_main
  2015 ;; This function uses a non-reentrant model
  2016 ;;
  2017                           
  2018                           
  2019                           ;psect for function _portinit
  2020  04C3                     _portinit:
  2021  04C3                     l1776:	
  2022                           ;incstack = 0
  2023                           ; Regs used in _portinit: [wreg+status,2]
  2024                           
  2025                           
  2026                           ;Q3.c: 163:     ANSELA=0x00;
  2027  04C3  0023               	movlb	3	; select bank3
  2028  04C4  018C               	clrf	12	;volatile
  2029                           
  2030                           ;Q3.c: 164:     ANSELB=0x00;
  2031  04C5  018D               	clrf	13	;volatile
  2032  04C6                     l1778:
  2033                           
  2034                           ;Q3.c: 166:     PORTA=0x07;
  2035  04C6  3007               	movlw	7
  2036  04C7  0020               	movlb	0	; select bank0
  2037  04C8  008C               	movwf	12	;volatile
  2038  04C9                     l1780:
  2039                           
  2040                           ;Q3.c: 167:     TRISA=0x07;
  2041  04C9  3007               	movlw	7
  2042  04CA  0021               	movlb	1	; select bank1
  2043  04CB  008C               	movwf	12	;volatile
  2044                           
  2045                           ;Q3.c: 168:     PORTB=0x00;
  2046  04CC  0020               	movlb	0	; select bank0
  2047  04CD  018D               	clrf	13	;volatile
  2048                           
  2049                           ;Q3.c: 169:     TRISB=0x00;
  2050  04CE  0021               	movlb	1	; select bank1
  2051  04CF  018D               	clrf	13	;volatile
  2052  04D0                     l1782:
  2053                           
  2054                           ;Q3.c: 170:     PORTC=0x07;
  2055  04D0  3007               	movlw	7
  2056  04D1  0020               	movlb	0	; select bank0
  2057  04D2  008E               	movwf	14	;volatile
  2058  04D3                     l1784:
  2059                           
  2060                           ;Q3.c: 171:     TRISC=0x00;
  2061  04D3  0021               	movlb	1	; select bank1
  2062  04D4  018E               	clrf	14	;volatile
  2063  04D5                     l95:
  2064  04D5  0008               	return
  2065  04D6                     __end_of_portinit:
  2066                           
  2067                           	psect	text6
  2068  04D6                     __ptext6:	
  2069 ;; *************** function _fclr *****************
  2070 ;; Defined at:
  2071 ;;		line 369 in file "Q3.c"
  2072 ;; Parameters:    Size  Location     Type
  2073 ;;  flg             2    0[COMMON] unsigned short 
  2074 ;; Auto vars:     Size  Location     Type
  2075 ;;		None
  2076 ;; Return value:  Size  Location     Type
  2077 ;;                  1    wreg      void 
  2078 ;; Registers used:
  2079 ;;		wreg, fsr0l, fsr0h, status,2, status,0
  2080 ;; Tracked objects:
  2081 ;;		On entry : 0/0
  2082 ;;		On exit  : 0/0
  2083 ;;		Unchanged: 0/0
  2084 ;; Data sizes:     COMMON   BANK0   BANK1   BANK2   BANK3   BANK4   BANK5   BANK6   BANK7   BANK8   BANK9  BANK10  BANK1
      +1  BANK12
  2085 ;;      Params:         2       0       0       0       0       0       0       0       0       0       0       0       
      +0       0
  2086 ;;      Locals:         0       0       0       0       0       0       0       0       0       0       0       0       
      +0       0
  2087 ;;      Temps:          0       0       0       0       0       0       0       0       0       0       0       0       
      +0       0
  2088 ;;      Totals:         2       0       0       0       0       0       0       0       0       0       0       0       
      +0       0
  2089 ;;Total ram usage:        2 bytes
  2090 ;; Hardware stack levels used:    1
  2091 ;; This function calls:
  2092 ;;		Nothing
  2093 ;; This function is called by:
  2094 ;;		_main
  2095 ;;		_kaisu
  2096 ;; This function uses a non-reentrant model
  2097 ;;
  2098                           
  2099                           
  2100                           ;psect for function _fclr
  2101  04D6                     _fclr:
  2102  04D6                     l1850:	
  2103                           ;incstack = 0
  2104                           ; Regs used in _fclr: [wreg-fsr0h+status,2+status,0]
  2105                           
  2106                           
  2107                           ;Q3.c: 369: void fclr(unsigned short flg);Q3.c: 370: {;Q3.c: 371:     switch(flg){
  2108  04D6  2CE5               	goto	l1860
  2109  04D7                     l1852:
  2110                           
  2111                           ;Q3.c: 373:                     flag_R=0;
  2112  04D7  0020               	movlb	0	; select bank0
  2113  04D8  01B8               	clrf	_flag_R
  2114  04D9  01B9               	clrf	_flag_R+1
  2115                           
  2116                           ;Q3.c: 374:                     break;
  2117  04DA  2CF5               	goto	l217
  2118  04DB                     l1854:
  2119                           
  2120                           ;Q3.c: 376:                     flag_P=0;
  2121  04DB  0020               	movlb	0	; select bank0
  2122  04DC  01B6               	clrf	_flag_P
  2123  04DD  01B7               	clrf	_flag_P+1
  2124                           
  2125                           ;Q3.c: 377:                     break;
  2126  04DE  2CF5               	goto	l217
  2127  04DF                     l1856:
  2128                           
  2129                           ;Q3.c: 379:                     flag_P=flag_R=0;
  2130  04DF  0020               	movlb	0	; select bank0
  2131  04E0  01B8               	clrf	_flag_R
  2132  04E1  01B9               	clrf	_flag_R+1
  2133  04E2  01B6               	clrf	_flag_P
  2134  04E3  01B7               	clrf	_flag_P+1
  2135                           
  2136                           ;Q3.c: 380:                     break;
  2137  04E4  2CF5               	goto	l217
  2138  04E5                     l1860:
  2139                           
  2140                           ; Switch on 2 bytes has been partitioned into a top level switch of size 1, and 1 sub-sw
      +                          itches
  2141                           ; Switch size 1, requested type "simple"
  2142                           ; Number of cases is 1, Range of values is 0 to 0
  2143                           ; switch strategies available:
  2144                           ; Name         Instructions Cycles
  2145                           ; simple_byte            4     3 (average)
  2146                           ; direct_byte            8     6 (fixed)
  2147                           ; jumptable            260     6 (fixed)
  2148                           ;	Chosen strategy is simple_byte
  2149  04E5  0871               	movf	fclr@flg+1,w
  2150  04E6  3A00               	xorlw	0	; case 0
  2151  04E7  1903               	skipnz
  2152  04E8  2CEA               	goto	l2306
  2153  04E9  2CF5               	goto	l217
  2154  04EA                     l2306:
  2155                           
  2156                           ; Switch size 1, requested type "simple"
  2157                           ; Number of cases is 3, Range of values is 0 to 2
  2158                           ; switch strategies available:
  2159                           ; Name         Instructions Cycles
  2160                           ; simple_byte           10     6 (average)
  2161                           ; direct_byte           12     6 (fixed)
  2162                           ; jumptable            260     6 (fixed)
  2163                           ;	Chosen strategy is simple_byte
  2164  04EA  0870               	movf	fclr@flg,w
  2165  04EB  3A00               	xorlw	0	; case 0
  2166  04EC  1903               	skipnz
  2167  04ED  2CD7               	goto	l1852
  2168  04EE  3A01               	xorlw	1	; case 1
  2169  04EF  1903               	skipnz
  2170  04F0  2CDB               	goto	l1854
  2171  04F1  3A03               	xorlw	3	; case 2
  2172  04F2  1903               	skipnz
  2173  04F3  2CDF               	goto	l1856
  2174  04F4  2CF5               	goto	l217
  2175  04F5                     l217:
  2176  04F5  0008               	return
  2177  04F6                     __end_of_fclr:
  2178  007E                     btemp	set	126	;btemp
  2179  007E                     wtemp0	set	126
  2180                           
  2181                           	psect	config
  2182                           
  2183                           ;Config register CONFIG1 @ 0x8007
  2184                           ;	Oscillator Selection
  2185                           ;	FOSC = INTOSC, INTOSC oscillator: I/O function on CLKIN pin
  2186                           ;	Watchdog Timer Enable
  2187                           ;	WDTE = OFF, WDT disabled
  2188                           ;	Power-up Timer Enable
  2189                           ;	PWRTE = OFF, PWRT disabled
  2190                           ;	MCLR Pin Function Select
  2191                           ;	MCLRE = ON, MCLR/VPP pin function is MCLR
  2192                           ;	Flash Program Memory Code Protection
  2193                           ;	CP = OFF, Program memory code protection is disabled
  2194                           ;	Data Memory Code Protection
  2195                           ;	CPD = OFF, Data memory code protection is disabled
  2196                           ;	Brown-out Reset Enable
  2197                           ;	BOREN = OFF, Brown-out Reset disabled
  2198                           ;	Clock Out Enable
  2199                           ;	CLKOUTEN = OFF, CLKOUT function is disabled. I/O or oscillator function on the CLKOUT 
      +                          pin
  2200                           ;	Internal/External Switchover
  2201                           ;	IESO = OFF, Internal/External Switchover mode is disabled
  2202                           ;	Fail-Safe Clock Monitor Enable
  2203                           ;	FCMEN = OFF, Fail-Safe Clock Monitor is disabled
  2204  8007                     	org	32775
  2205  8007  09E4               	dw	2532
  2206                           
  2207                           ;Config register CONFIG2 @ 0x8008
  2208                           ;	Flash Memory Self-Write Protection
  2209                           ;	WRT = OFF, Write protection off
  2210                           ;	Voltage Regulator Capacitor Enable
  2211                           ;	VCAPEN = OFF, All VCAP pin functionality is disabled
  2212                           ;	PLL Enable
  2213                           ;	PLLEN = OFF, 4x PLL disabled
  2214                           ;	Stack Overflow/Underflow Reset Enable
  2215                           ;	STVREN = ON, Stack Overflow or Underflow will cause a Reset
  2216                           ;	Brown-out Reset Voltage Selection
  2217                           ;	BORV = LO, Brown-out Reset Voltage (Vbor), low trip point selected.
  2218                           ;	Low-Voltage Programming Enable
  2219                           ;	LVP = OFF, High-voltage on MCLR/VPP must be used for programming
  2220  8008                     	org	32776
  2221  8008  1EFF               	dw	7935

Data Sizes:
    Strings     0
    Constant    0
    Data        156
    BSS         34
    Persistent  32
    Stack       0

Auto Spaces:
    Space          Size  Autos    Used
    COMMON           14     10      14
    BANK0            80     24      72
    BANK1            80      0      74
    BANK2            80      0      64
    BANK3            80      0       0
    BANK4            80      0       0
    BANK5            80      0       0
    BANK6            80      0       0
    BANK7            80      0       0
    BANK8            80      0       0
    BANK9            80      0       0
    BANK10           80      0       0
    BANK11           80      0       0
    BANK12           48      0       0

Pointer List with Targets:

    None.

Critical Paths under _main in COMMON

    _main->_waitSEG
    _waitSEG->___lwdiv
    _waitSEG->_dynam

Critical Paths under _main in BANK0

    _main->_waitSEG
    _waitSEG->_dynam

Critical Paths under _main in BANK1

    None.

Critical Paths under _main in BANK2

    None.

Critical Paths under _main in BANK3

    None.

Critical Paths under _main in BANK4

    None.

Critical Paths under _main in BANK5

    None.

Critical Paths under _main in BANK6

    None.

Critical Paths under _main in BANK7

    None.

Critical Paths under _main in BANK8

    None.

Critical Paths under _main in BANK9

    None.

Critical Paths under _main in BANK10

    None.

Critical Paths under _main in BANK11

    None.

Critical Paths under _main in BANK12

    None.

Call Graph Tables:

 ---------------------------------------------------------------------------------
 (Depth) Function   	        Calls       Base Space   Used Autos Params    Refs
 ---------------------------------------------------------------------------------
 (0) _main                                                10    10      0    4348
                                             14 BANK0     10    10      0
                              _dynam
                               _fclr
                           _portinit
                            _waitSEG
                             _zenoff
 ---------------------------------------------------------------------------------
 (1) _zenoff                                               0     0      0       0
 ---------------------------------------------------------------------------------
 (1) _waitSEG                                              8     2      6    2340
                                              8 COMMON     2     2      0
                                              8 BANK0      6     0      6
                            ___lwdiv
                              _dynam
 ---------------------------------------------------------------------------------
 (2) _dynam                                               16     8      8    1663
                                              0 COMMON     8     0      8
                                              0 BANK0      8     8      0
 ---------------------------------------------------------------------------------
 (2) ___lwdiv                                              8     4      4     314
                                              0 COMMON     8     4      4
 ---------------------------------------------------------------------------------
 (1) _portinit                                             0     0      0       0
 ---------------------------------------------------------------------------------
 (1) _fclr                                                 2     0      2     250
                                              0 COMMON     2     0      2
 ---------------------------------------------------------------------------------
 Estimated maximum stack depth 2
 ---------------------------------------------------------------------------------

 Call Graph Graphs:

 _main (ROOT)
   _dynam
   _fclr
   _portinit
   _waitSEG
     ___lwdiv
     _dynam
   _zenoff

 Address spaces:
Name               Size   Autos  Total    Cost      Usage
BIGRAM             3F0      0       0       0        0.0%
EEDATA             100      0       0       0        0.0%
NULL                 0      0       0       0        0.0%
CODE                 0      0       0       0        0.0%
BITCOMMON            E      0       0       1        0.0%
BITSFR0              0      0       0       1        0.0%
SFR0                 0      0       0       1        0.0%
COMMON               E      A       E       2      100.0%
BITSFR1              0      0       0       2        0.0%
SFR1                 0      0       0       2        0.0%
BITSFR2              0      0       0       3        0.0%
SFR2                 0      0       0       3        0.0%
STACK                0      0       0       3        0.0%
BITBANK0            50      0       0       4        0.0%
BITSFR3              0      0       0       4        0.0%
SFR3                 0      0       0       4        0.0%
BANK0               50     18      48       5       90.0%
BITSFR4              0      0       0       5        0.0%
SFR4                 0      0       0       5        0.0%
BITBANK1            50      0       0       6        0.0%
BITSFR5              0      0       0       6        0.0%
SFR5                 0      0       0       6        0.0%
BANK1               50      0      4A       7       92.5%
BITSFR6              0      0       0       7        0.0%
SFR6                 0      0       0       7        0.0%
BITBANK2            50      0       0       8        0.0%
BITSFR7              0      0       0       8        0.0%
SFR7                 0      0       0       8        0.0%
BANK2               50      0      40       9       80.0%
BITSFR8              0      0       0       9        0.0%
SFR8                 0      0       0       9        0.0%
BITBANK3            50      0       0      10        0.0%
BITSFR9              0      0       0      10        0.0%
SFR9                 0      0       0      10        0.0%
BANK3               50      0       0      11        0.0%
BITSFR10             0      0       0      11        0.0%
SFR10                0      0       0      11        0.0%
BITBANK4            50      0       0      12        0.0%
BITSFR11             0      0       0      12        0.0%
SFR11                0      0       0      12        0.0%
BANK4               50      0       0      13        0.0%
BITSFR12             0      0       0      13        0.0%
SFR12                0      0       0      13        0.0%
BITBANK5            50      0       0      14        0.0%
BITSFR13             0      0       0      14        0.0%
SFR13                0      0       0      14        0.0%
BANK5               50      0       0      15        0.0%
BITSFR14             0      0       0      15        0.0%
SFR14                0      0       0      15        0.0%
BITBANK6            50      0       0      16        0.0%
BITSFR15             0      0       0      16        0.0%
SFR15                0      0       0      16        0.0%
BANK6               50      0       0      17        0.0%
BITSFR16             0      0       0      17        0.0%
SFR16                0      0       0      17        0.0%
BITBANK7            50      0       0      18        0.0%
BITSFR17             0      0       0      18        0.0%
SFR17                0      0       0      18        0.0%
BANK7               50      0       0      19        0.0%
BITSFR18             0      0       0      19        0.0%
SFR18                0      0       0      19        0.0%
BITSFR19             0      0       0      20        0.0%
SFR19                0      0       0      20        0.0%
ABS                  0      0      E0      20        0.0%
BITBANK8            50      0       0      21        0.0%
BITSFR20             0      0       0      21        0.0%
SFR20                0      0       0      21        0.0%
BANK8               50      0       0      22        0.0%
BITSFR21             0      0       0      22        0.0%
SFR21                0      0       0      22        0.0%
BITBANK9            50      0       0      23        0.0%
BITSFR22             0      0       0      23        0.0%
SFR22                0      0       0      23        0.0%
BANK9               50      0       0      24        0.0%
BITSFR23             0      0       0      24        0.0%
SFR23                0      0       0      24        0.0%
BITBANK10           50      0       0      25        0.0%
BITSFR24             0      0       0      25        0.0%
SFR24                0      0       0      25        0.0%
BANK10              50      0       0      26        0.0%
BITSFR25             0      0       0      26        0.0%
SFR25                0      0       0      26        0.0%
BITBANK11           50      0       0      27        0.0%
BITSFR26             0      0       0      27        0.0%
SFR26                0      0       0      27        0.0%
BANK11              50      0       0      28        0.0%
BITSFR27             0      0       0      28        0.0%
SFR27                0      0       0      28        0.0%
BITBANK12           30      0       0      29        0.0%
BITSFR28             0      0       0      29        0.0%
SFR28                0      0       0      29        0.0%
BANK12              30      0       0      30        0.0%
BITSFR29             0      0       0      30        0.0%
SFR29                0      0       0      30        0.0%
BITSFR30             0      0       0      31        0.0%
SFR30                0      0       0      31        0.0%
DATA                 0      0      E0      31        0.0%
BITSFR31             0      0       0      32        0.0%
SFR31                0      0       0      32        0.0%


Microchip Technology PIC Macro Assembler V2.31 build 20201012212115 
Symbol Table                                                                                   Tue Feb 09 17:42:27 2021

                     l95 04D5                       _cw 007A                      l112 067F  
                    l114 068F                      l123 06C5                      l116 06A5  
                    l108 04B0                      l118 06B5                      l135 07CC  
                    l217 04F5                      l129 0742                      l270 0606  
                    l258 0529                      l276 0623                      l268 05F9  
                    l716 0565                      _RA0 0060                      _RA1 0061  
                    _RA2 0062                      _RC0 0070                      _RC1 0071  
                    _RC2 0072                      _RC5 0075                      _RC6 0076  
                    _RC7 0077                      u910 0676                      u911 0675  
                    u920 0689                      u921 0688                      u930 069C  
                    u931 069B                      u940 06AF                      u941 06AE  
                    u950 06C3                      u951 06C2                      u960 06CD  
                    u961 06CC                      u970 06D3                      u971 06D2  
                    u980 06E9                      u981 06E8                      u990 06EF  
                    u991 06EE                      _ccw 0032                      _flg 0034  
                    wreg 0009                     l2130 05F3                     l2140 05F9  
                   l2132 05F9                     l2142 05FE                     l2134 05F9  
                   l2304 07C1                     l1600 0691                     l2160 063D  
                   l2152 0627                     l2144 0602                     l2136 05F9  
                   l2128 05F0                     l2306 04EA                     l1610 06A1  
                   l1602 0693                     l2162 0642                     l2146 0617  
                   l2138 05F9                     l1700 0785                     l1620 06B8  
                   l1612 06A9                     l1604 0694                     l2164 0658  
                   l2148 061E                     l1710 07AC                     l1702 078B  
                   l1630 06BD                     l1622 06B9                     l1606 0695  
                   l2166 065C                     l2158 062B                     l1712 07B0  
                   l1704 079D                     l1640 06D7                     l1632 06C3  
                   l1624 06B9                     l1616 06B0                     l1608 069C  
                   l1722 07B7                     l1714 07B0                     l1706 07A4  
                   l1650 06EF                     l1642 06D9                     l1634 06C7  
                   l1626 06BA                     l1810 04AD                     l1708 07AA  
                   l1660 0727                     l1652 0701                     l1644 06DD  
                   l1636 06CD                     l1628 06BB                     l1580 066B  
                   l1812 04AE                     l1750 052A                     l1662 072D  
                   l1654 0708                     l1638 06D3                     l1646 06E3  
                   l1726 07BC                     l1590 067B                     l1582 066D  
                   l1814 04AF                     l1806 04A8                     l1760 053E  
                   l1752 052C                     l1680 0744                     l1664 072F  
                   l1656 070E                     l1648 06E9                     l1592 0683  
                   l1584 066E                     l1576 0663                     l1808 04AC  
                   l1850 04D6                     l1770 055B                     l1762 0542  
                   l1754 0532                     l1690 075A                     l1682 074A  
                   l1666 0733                     l1658 0720                     l1586 066F  
                   l1578 066A                     l1852 04D7                     l1860 04E5  
                   l1780 04C9                     l1764 0551                     l1756 0535  
                   l1772 0561                     l1684 0750                     l1692 0760  
                   l1676 073A                     l1668 0733                     l1596 068A  
                   l1588 0676                     l1854 04DB                     l1782 04D0  
                   l1766 0555                     l1758 053A                     l1694 0766  
                   l1686 0754                     l1678 0740                     l1870 050B  
                   l1856 04DF                     l1784 04D3                     l1776 04C3  
                   l1768 0556                     l1696 076C                     l1688 0756  
                   l1778 04C6                     l1698 077E                     l1874 0512  
                   l1866 04F6                     l1876 0524                     l1868 0507  
                   u1000 0708                     u1001 0707                     u1010 070E  
                   u1011 070D                     u1100 078B                     u1020 0727  
                   u1101 078A                     u1021 0726                     u1110 07A4  
                   u1030 072D                     u1111 07A3                     u1031 072C  
                   u1120 07AA                     u1040 0740                     u1121 07A9  
                   u1041 073F                     u1210 0561                     u1050 074A  
                   u1211 0560                     u1051 0749                     u1060 0750  
                   u1205 0557                     u1061 074F                     u1150 0532  
                   u1070 0766                     u1151 0531                     u1071 0765  
                   u1080 076C                     u1081 076B                     u1170 0542  
                   u1090 0785                     u1171 0541                     u1091 0784  
                   u1165 0536                     u1190 0551                     u1191 0550  
                   u1185 0543                     u1290 0511                     u1195 054D  
                   u1291 0510                     u1700 060D                     u1701 060A  
                   u1710 0615                     u1711 0612                     u1730 0623  
                   u1714 060F                     u1731 0622                     u1740 0627  
                   u1724 0617                     u1741 0626                     u1750 0642  
                   u1670 05FE                     u1751 0641                     u1671 05FD  
                   u1760 0660                     u1680 0602                     u1761 065F  
                   u1681 0601                     u1690 0606                     u1691 0605  
                   _atai 002C                     _fclr 04D6                     _main 05F0  
                   _num0 00C0                     _kisu 00E0                     _moja 00D4  
                   _samf 0120                     _mojf 0154                     _mojh 0064  
                   _moji 0140                     _mojn 0060                     _samp 00A0  
                   _gusu 0056                     fsr0h 0005                     fsr1h 0007  
                   indf0 0000                     fsr0l 0004                     fsr1l 0006  
                   btemp 007E                     start 0002                    ?_fclr 0070  
                  ?_main 0070          __end_of___lwdiv 0566                    _PORTA 000C  
                  _PORTB 000D                    _PORTC 000E                    _TRISA 008C  
                  _TRISB 008D                    _TRISC 008E                    _code1 0022  
                  _atai1 002E                    _count 002A                    _dynam 0663  
                  _fugou 0020                    main@i 0054          __end_of_waitSEG 052A  
                  status 0003                    wtemp0 007E          __initialization 07CD  
           __end_of_fclr 04F6             __end_of_main 0663                   ??_fclr 0072  
                 ??_main 007A                   ?_dynam 0070                   _ANSELA 018C  
                 _ANSELB 018D                   _OSCCON 0099              dynam@smdata 0074  
                 _code10 0024                   _atai10 0030                   _flag_P 0036  
                 _flag_R 0038                ??___lwdiv 0074                   _zenoff 04A8  
                 dynam@j 0042                ??_waitSEG 0078         __end_of_portinit 04D6  
__end_of__initialization 07FD           __pcstackCOMMON 0070             __pidataBANK0 04B1  
           __pidataBANK1 05A6             __pidataBANK2 0566            __end_of_dynam 07CD  
                ??_dynam 0078               __pbssBANK0 0020               __pmaintext 05F0  
                ?_zenoff 0070              waitSEG@seg1 0046              waitSEG@seg2 0048  
              ?_portinit 0070                  ___lwdiv 052A                  _code100 0026  
                __ptext1 04A8                  __ptext2 04F6                  __ptext3 0663  
                __ptext4 052A                  __ptext5 04C3                  __ptext6 04D6  
        __size_of_zenoff 0009                  fclr@flg 0070                  _waitSEG 04F6  
                clrloop0 049D     end_of_initialization 07FD                  dynam@tm 0040  
                dynam@tr 0076                  init_ram 04A2                  initloop 04A3  
             ??_portinit 0070           __end_of_zenoff 04B1      start_initialization 07CD  
            __pdataBANK0 0056              __pdataBANK1 00A0              __pdataBANK2 0120  
               ??_zenoff 0070              __pbssCOMMON 007A                ___latbits 0003  
          __pcstackBANK0 003E         ___lwdiv@dividend 0072                 ?___lwdiv 0070  
      __size_of_portinit 0013                 ?_waitSEG 0046         ___lwdiv@quotient 0075  
         __size_of_dynam 016A            dynam@dig1data 0070            dynam@dig2data 0072  
              clear_ram0 049C         __size_of___lwdiv 003C                 _code1000 0028  
        ___lwdiv@divisor 0070          ___lwdiv@counter 0077         __size_of_waitSEG 0034  
               _flag_sw1 003C                 _flag_sw2 003A                 _flag_sw3 007C  
              waitSEG@wt 004A            __size_of_fclr 0020            __size_of_main 0073  
               _portinit 04C3                 dynam@ext 0044                 dynam@smd 003E  
               waitSEG@i 0078  
