

Microchip MPLAB XC8 Assembler V2.31 build 20201012212115 
                                                                                               Wed Mar 03 23:37:08 2021

Microchip MPLAB XC8 C Compiler v2.31 (Free license) build 20201012212115 Og1 
     1                           	processor	16F1938
     2                           	pagewidth 120
     3                           	opt	flic
     4                           	psect	idataBANK1,global,class=CODE,delta=2,noexec
     5                           	psect	idataBANK2,global,class=CODE,delta=2,noexec
     6                           	psect	idataBANK3,global,class=CODE,delta=2,noexec
     7                           	psect	cinit,global,class=CODE,merge=1,delta=2
     8                           	psect	bssBANK0,global,class=BANK0,space=1,delta=1,noexec
     9                           	psect	bssBANK1,global,class=BANK1,space=1,delta=1,noexec
    10                           	psect	dataBANK1,global,class=BANK1,space=1,delta=1,noexec
    11                           	psect	dataBANK2,global,class=BANK2,space=1,delta=1,noexec
    12                           	psect	dataBANK3,global,class=BANK3,space=1,delta=1,noexec
    13                           	psect	inittext,global,class=CODE,delta=2
    14                           	psect	clrtext,global,class=CODE,delta=2
    15                           	psect	cstackCOMMON,global,class=COMMON,space=1,delta=1,noexec
    16                           	psect	cstackBANK0,global,class=BANK0,space=1,delta=1,noexec
    17                           	psect	maintext,global,class=CODE,merge=1,split=1,delta=2
    18                           	psect	text1,local,class=CODE,merge=1,delta=2
    19                           	psect	text2,local,class=CODE,merge=1,delta=2
    20                           	psect	text3,local,class=CODE,merge=1,delta=2
    21                           	psect	text4,local,class=CODE,merge=1,delta=2
    22                           	psect	text5,local,class=CODE,merge=1,delta=2,group=1
    23                           	psect	text6,local,class=CODE,merge=1,delta=2
    24                           	psect	text7,local,class=CODE,merge=1,delta=2
    25                           	psect	text8,local,class=CODE,merge=1,delta=2
    26                           	psect	text9,local,class=CODE,merge=1,delta=2
    27                           	psect	text10,local,class=CODE,merge=1,delta=2,group=1
    28                           	psect	text11,local,class=CODE,merge=1,delta=2,group=1
    29                           	psect	text12,local,class=CODE,merge=1,delta=2,group=1
    30                           	psect	text13,local,class=CODE,merge=1,delta=2
    31                           	psect	config,global,abs,ovrld,class=CONFIG,space=4,delta=2,noexec
    32                           	dabs	1,0x7E,2
    33  0000                     
    34                           ; Version 2.20
    35                           ; Generated 12/02/2020 GMT
    36                           ; 
    37                           ; Copyright © 2020, Microchip Technology Inc. and its subsidiaries ("Microchip")
    38                           ; All rights reserved.
    39                           ; 
    40                           ; This software is developed by Microchip Technology Inc. and its subsidiaries ("Microch
      +                          ip").
    41                           ; 
    42                           ; Redistribution and use in source and binary forms, with or without modification, are
    43                           ; permitted provided that the following conditions are met:
    44                           ; 
    45                           ;     1. Redistributions of source code must retain the above copyright notice, this lis
      +                          t of
    46                           ;        conditions and the following disclaimer.
    47                           ; 
    48                           ;     2. Redistributions in binary form must reproduce the above copyright notice, this 
      +                          list
    49                           ;        of conditions and the following disclaimer in the documentation and/or other
    50                           ;        materials provided with the distribution.
    51                           ; 
    52                           ;     3. Microchip's name may not be used to endorse or promote products derived from th
      +                          is
    53                           ;        software without specific prior written permission.
    54                           ; 
    55                           ; THIS SOFTWARE IS PROVIDED BY MICROCHIP "AS IS" AND ANY EXPRESS OR IMPLIED WARRANTIES,
    56                           ; INCLUDING, BUT NOT LIMITED TO, THE IMPLIED WARRANTIES OF MERCHANTABILITY AND FITNESS F
      +                          OR
    57                           ; PURPOSE ARE DISCLAIMED.  IN NO EVENT SHALL MICROCHIP BE LIABLE FOR ANY DIRECT, INDIREC
      +                          T,
    58                           ; INCIDENTAL, SPECIAL, EXEMPLARY, OR CONSEQUENTIAL DAMAGES (INCLUDING BUT NOT LIMITED TO
    59                           ; PROCUREMENT OF SUBSTITUTE GOODS OR SERVICES; LOSS OF USE, DATA OR PROFITS; OR BUSINESS
    60                           ; INTERRUPTION) HOWSOEVER CAUSED AND ON ANY THEORY OF LIABILITY, WHETHER IN CONTRACT, ST
      +                          RICT
    61                           ; LIABILITY, OR TORT (INCLUDING NEGLIGENCE OR OTHERWISE) ARISING IN ANY WAY OUT OF THE U
      +                          SE OF
    62                           ; THIS SOFTWARE, EVEN IF ADVISED OF THE POSSIBILITY OF SUCH DAMAGE.
    63                           ; 
    64                           ; 
    65                           ; Code-generator required, PIC16F1938 Definitions
    66                           ; 
    67                           ; SFR Addresses
    68  0000                     	;# 
    69  0001                     	;# 
    70  0002                     	;# 
    71  0003                     	;# 
    72  0004                     	;# 
    73  0005                     	;# 
    74  0006                     	;# 
    75  0007                     	;# 
    76  0008                     	;# 
    77  0009                     	;# 
    78  000A                     	;# 
    79  000B                     	;# 
    80  000C                     	;# 
    81  000D                     	;# 
    82  000E                     	;# 
    83  0010                     	;# 
    84  0011                     	;# 
    85  0012                     	;# 
    86  0013                     	;# 
    87  0015                     	;# 
    88  0016                     	;# 
    89  0016                     	;# 
    90  0017                     	;# 
    91  0018                     	;# 
    92  0019                     	;# 
    93  001A                     	;# 
    94  001B                     	;# 
    95  001C                     	;# 
    96  001E                     	;# 
    97  001F                     	;# 
    98  008C                     	;# 
    99  008D                     	;# 
   100  008E                     	;# 
   101  0090                     	;# 
   102  0091                     	;# 
   103  0092                     	;# 
   104  0093                     	;# 
   105  0095                     	;# 
   106  0096                     	;# 
   107  0097                     	;# 
   108  0098                     	;# 
   109  0099                     	;# 
   110  009A                     	;# 
   111  009B                     	;# 
   112  009B                     	;# 
   113  009C                     	;# 
   114  009D                     	;# 
   115  009E                     	;# 
   116  010C                     	;# 
   117  010D                     	;# 
   118  010E                     	;# 
   119  0110                     	;# 
   120  0111                     	;# 
   121  0112                     	;# 
   122  0113                     	;# 
   123  0114                     	;# 
   124  0115                     	;# 
   125  0116                     	;# 
   126  0117                     	;# 
   127  0118                     	;# 
   128  0119                     	;# 
   129  011A                     	;# 
   130  011B                     	;# 
   131  011D                     	;# 
   132  018C                     	;# 
   133  018D                     	;# 
   134  0191                     	;# 
   135  0191                     	;# 
   136  0192                     	;# 
   137  0193                     	;# 
   138  0193                     	;# 
   139  0193                     	;# 
   140  0194                     	;# 
   141  0195                     	;# 
   142  0196                     	;# 
   143  0199                     	;# 
   144  019A                     	;# 
   145  019B                     	;# 
   146  019B                     	;# 
   147  019B                     	;# 
   148  019B                     	;# 
   149  019C                     	;# 
   150  019C                     	;# 
   151  019D                     	;# 
   152  019E                     	;# 
   153  019F                     	;# 
   154  020D                     	;# 
   155  0210                     	;# 
   156  0211                     	;# 
   157  0212                     	;# 
   158  0213                     	;# 
   159  0214                     	;# 
   160  0215                     	;# 
   161  0215                     	;# 
   162  0216                     	;# 
   163  0217                     	;# 
   164  0291                     	;# 
   165  0291                     	;# 
   166  0292                     	;# 
   167  0293                     	;# 
   168  0294                     	;# 
   169  0295                     	;# 
   170  0295                     	;# 
   171  0296                     	;# 
   172  0298                     	;# 
   173  0298                     	;# 
   174  0299                     	;# 
   175  029A                     	;# 
   176  029B                     	;# 
   177  029C                     	;# 
   178  029C                     	;# 
   179  029D                     	;# 
   180  029E                     	;# 
   181  029F                     	;# 
   182  0311                     	;# 
   183  0311                     	;# 
   184  0312                     	;# 
   185  0313                     	;# 
   186  0314                     	;# 
   187  0315                     	;# 
   188  0315                     	;# 
   189  0316                     	;# 
   190  0318                     	;# 
   191  0318                     	;# 
   192  0319                     	;# 
   193  031A                     	;# 
   194  031C                     	;# 
   195  031C                     	;# 
   196  031D                     	;# 
   197  031E                     	;# 
   198  0394                     	;# 
   199  0395                     	;# 
   200  0396                     	;# 
   201  0415                     	;# 
   202  0416                     	;# 
   203  0417                     	;# 
   204  041C                     	;# 
   205  041D                     	;# 
   206  041E                     	;# 
   207  0791                     	;# 
   208  0792                     	;# 
   209  0793                     	;# 
   210  0794                     	;# 
   211  0795                     	;# 
   212  0798                     	;# 
   213  0799                     	;# 
   214  07A0                     	;# 
   215  07A1                     	;# 
   216  07A3                     	;# 
   217  07A4                     	;# 
   218  07A6                     	;# 
   219  07A7                     	;# 
   220  07A9                     	;# 
   221  07AA                     	;# 
   222  0FE4                     	;# 
   223  0FE5                     	;# 
   224  0FE6                     	;# 
   225  0FE7                     	;# 
   226  0FE8                     	;# 
   227  0FE9                     	;# 
   228  0FEA                     	;# 
   229  0FEB                     	;# 
   230  0FED                     	;# 
   231  0FEE                     	;# 
   232  0FEF                     	;# 
   233  0000                     	;# 
   234  0001                     	;# 
   235  0002                     	;# 
   236  0003                     	;# 
   237  0004                     	;# 
   238  0005                     	;# 
   239  0006                     	;# 
   240  0007                     	;# 
   241  0008                     	;# 
   242  0009                     	;# 
   243  000A                     	;# 
   244  000B                     	;# 
   245  000C                     	;# 
   246  000D                     	;# 
   247  000E                     	;# 
   248  0010                     	;# 
   249  0011                     	;# 
   250  0012                     	;# 
   251  0013                     	;# 
   252  0015                     	;# 
   253  0016                     	;# 
   254  0016                     	;# 
   255  0017                     	;# 
   256  0018                     	;# 
   257  0019                     	;# 
   258  001A                     	;# 
   259  001B                     	;# 
   260  001C                     	;# 
   261  001E                     	;# 
   262  001F                     	;# 
   263  008C                     	;# 
   264  008D                     	;# 
   265  008E                     	;# 
   266  0090                     	;# 
   267  0091                     	;# 
   268  0092                     	;# 
   269  0093                     	;# 
   270  0095                     	;# 
   271  0096                     	;# 
   272  0097                     	;# 
   273  0098                     	;# 
   274  0099                     	;# 
   275  009A                     	;# 
   276  009B                     	;# 
   277  009B                     	;# 
   278  009C                     	;# 
   279  009D                     	;# 
   280  009E                     	;# 
   281  010C                     	;# 
   282  010D                     	;# 
   283  010E                     	;# 
   284  0110                     	;# 
   285  0111                     	;# 
   286  0112                     	;# 
   287  0113                     	;# 
   288  0114                     	;# 
   289  0115                     	;# 
   290  0116                     	;# 
   291  0117                     	;# 
   292  0118                     	;# 
   293  0119                     	;# 
   294  011A                     	;# 
   295  011B                     	;# 
   296  011D                     	;# 
   297  018C                     	;# 
   298  018D                     	;# 
   299  0191                     	;# 
   300  0191                     	;# 
   301  0192                     	;# 
   302  0193                     	;# 
   303  0193                     	;# 
   304  0193                     	;# 
   305  0194                     	;# 
   306  0195                     	;# 
   307  0196                     	;# 
   308  0199                     	;# 
   309  019A                     	;# 
   310  019B                     	;# 
   311  019B                     	;# 
   312  019B                     	;# 
   313  019B                     	;# 
   314  019C                     	;# 
   315  019C                     	;# 
   316  019D                     	;# 
   317  019E                     	;# 
   318  019F                     	;# 
   319  020D                     	;# 
   320  0210                     	;# 
   321  0211                     	;# 
   322  0212                     	;# 
   323  0213                     	;# 
   324  0214                     	;# 
   325  0215                     	;# 
   326  0215                     	;# 
   327  0216                     	;# 
   328  0217                     	;# 
   329  0291                     	;# 
   330  0291                     	;# 
   331  0292                     	;# 
   332  0293                     	;# 
   333  0294                     	;# 
   334  0295                     	;# 
   335  0295                     	;# 
   336  0296                     	;# 
   337  0298                     	;# 
   338  0298                     	;# 
   339  0299                     	;# 
   340  029A                     	;# 
   341  029B                     	;# 
   342  029C                     	;# 
   343  029C                     	;# 
   344  029D                     	;# 
   345  029E                     	;# 
   346  029F                     	;# 
   347  0311                     	;# 
   348  0311                     	;# 
   349  0312                     	;# 
   350  0313                     	;# 
   351  0314                     	;# 
   352  0315                     	;# 
   353  0315                     	;# 
   354  0316                     	;# 
   355  0318                     	;# 
   356  0318                     	;# 
   357  0319                     	;# 
   358  031A                     	;# 
   359  031C                     	;# 
   360  031C                     	;# 
   361  031D                     	;# 
   362  031E                     	;# 
   363  0394                     	;# 
   364  0395                     	;# 
   365  0396                     	;# 
   366  0415                     	;# 
   367  0416                     	;# 
   368  0417                     	;# 
   369  041C                     	;# 
   370  041D                     	;# 
   371  041E                     	;# 
   372  0791                     	;# 
   373  0792                     	;# 
   374  0793                     	;# 
   375  0794                     	;# 
   376  0795                     	;# 
   377  0798                     	;# 
   378  0799                     	;# 
   379  07A0                     	;# 
   380  07A1                     	;# 
   381  07A3                     	;# 
   382  07A4                     	;# 
   383  07A6                     	;# 
   384  07A7                     	;# 
   385  07A9                     	;# 
   386  07AA                     	;# 
   387  0FE4                     	;# 
   388  0FE5                     	;# 
   389  0FE6                     	;# 
   390  0FE7                     	;# 
   391  0FE8                     	;# 
   392  0FE9                     	;# 
   393  0FEA                     	;# 
   394  0FEB                     	;# 
   395  0FED                     	;# 
   396  0FEE                     	;# 
   397  0FEF                     	;# 
   398                           
   399                           	psect	idataBANK1
   400  0004                     __pidataBANK1:
   401                           
   402                           ;initializer for _samp
   403  0004  343F               	retlw	63
   404  0005  3400               	retlw	0
   405  0006  3406               	retlw	6
   406  0007  3400               	retlw	0
   407  0008  345B               	retlw	91
   408  0009  3400               	retlw	0
   409  000A  344F               	retlw	79
   410  000B  3400               	retlw	0
   411  000C  3466               	retlw	102
   412  000D  3400               	retlw	0
   413  000E  346D               	retlw	109
   414  000F  3400               	retlw	0
   415  0010  347D               	retlw	125
   416  0011  3400               	retlw	0
   417  0012  3427               	retlw	39
   418  0013  3400               	retlw	0
   419  0014  347F               	retlw	127
   420  0015  3400               	retlw	0
   421  0016  346F               	retlw	111
   422  0017  3400               	retlw	0
   423  0018  345F               	retlw	95
   424  0019  3400               	retlw	0
   425  001A  347C               	retlw	124
   426  001B  3400               	retlw	0
   427  001C  3458               	retlw	88
   428  001D  3400               	retlw	0
   429  001E  345E               	retlw	94
   430  001F  3400               	retlw	0
   431  0020  3479               	retlw	121
   432  0021  3400               	retlw	0
   433  0022  3471               	retlw	113
   434  0023  3400               	retlw	0
   435                           
   436                           ;initializer for _num0
   437  0024  343F               	retlw	63
   438  0025  3400               	retlw	0
   439  0026  3406               	retlw	6
   440  0027  3400               	retlw	0
   441  0028  345B               	retlw	91
   442  0029  3400               	retlw	0
   443  002A  344F               	retlw	79
   444  002B  3400               	retlw	0
   445  002C  3466               	retlw	102
   446  002D  3400               	retlw	0
   447  002E  346D               	retlw	109
   448  002F  3400               	retlw	0
   449  0030  347D               	retlw	125
   450  0031  3400               	retlw	0
   451  0032  3427               	retlw	39
   452  0033  3400               	retlw	0
   453  0034  347F               	retlw	127
   454  0035  3400               	retlw	0
   455  0036  346F               	retlw	111
   456  0037  3400               	retlw	0
   457                           
   458                           ;initializer for _mojn
   459  0038  3454               	retlw	84
   460  0039  3400               	retlw	0
   461  003A  3473               	retlw	115
   462  003B  3400               	retlw	0
   463                           
   464                           ;initializer for _mojh
   465  003C  3476               	retlw	118
   466  003D  3400               	retlw	0
   467  003E  3438               	retlw	56
   468  003F  3400               	retlw	0
   469                           
   470                           	psect	idataBANK2
   471  0F75                     __pidataBANK2:
   472                           
   473                           ;initializer for _moji
   474  0F75  345F               	retlw	95
   475  0F76  3400               	retlw	0
   476  0F77  347C               	retlw	124
   477  0F78  3400               	retlw	0
   478  0F79  3458               	retlw	88
   479  0F7A  3400               	retlw	0
   480  0F7B  345E               	retlw	94
   481  0F7C  3400               	retlw	0
   482  0F7D  3479               	retlw	121
   483  0F7E  3400               	retlw	0
   484  0F7F  3471               	retlw	113
   485  0F80  3400               	retlw	0
   486  0F81  3476               	retlw	118
   487  0F82  3400               	retlw	0
   488  0F83  3438               	retlw	56
   489  0F84  3400               	retlw	0
   490  0F85  3454               	retlw	84
   491  0F86  3400               	retlw	0
   492  0F87  3473               	retlw	115
   493  0F88  3400               	retlw	0
   494                           
   495                           ;initializer for _mojf
   496  0F89  3471               	retlw	113
   497  0F8A  3400               	retlw	0
   498  0F8B  3479               	retlw	121
   499  0F8C  3400               	retlw	0
   500  0F8D  345E               	retlw	94
   501  0F8E  3400               	retlw	0
   502  0F8F  3458               	retlw	88
   503  0F90  3400               	retlw	0
   504  0F91  347C               	retlw	124
   505  0F92  3400               	retlw	0
   506  0F93  345F               	retlw	95
   507  0F94  3400               	retlw	0
   508                           
   509                           ;initializer for _moja
   510  0F95  345F               	retlw	95
   511  0F96  3400               	retlw	0
   512  0F97  347C               	retlw	124
   513  0F98  3400               	retlw	0
   514  0F99  3458               	retlw	88
   515  0F9A  3400               	retlw	0
   516  0F9B  345E               	retlw	94
   517  0F9C  3400               	retlw	0
   518  0F9D  3479               	retlw	121
   519  0F9E  3400               	retlw	0
   520  0F9F  3471               	retlw	113
   521  0FA0  3400               	retlw	0
   522                           
   523                           ;initializer for _kisu
   524  0FA1  3406               	retlw	6
   525  0FA2  3400               	retlw	0
   526  0FA3  344F               	retlw	79
   527  0FA4  3400               	retlw	0
   528  0FA5  346D               	retlw	109
   529  0FA6  3400               	retlw	0
   530  0FA7  3427               	retlw	39
   531  0FA8  3400               	retlw	0
   532  0FA9  346F               	retlw	111
   533  0FAA  3400               	retlw	0
   534                           
   535                           ;initializer for _gusu
   536  0FAB  343F               	retlw	63
   537  0FAC  3400               	retlw	0
   538  0FAD  345B               	retlw	91
   539  0FAE  3400               	retlw	0
   540  0FAF  3466               	retlw	102
   541  0FB0  3400               	retlw	0
   542  0FB1  347D               	retlw	125
   543  0FB2  3400               	retlw	0
   544  0FB3  347F               	retlw	127
   545  0FB4  3400               	retlw	0
   546                           
   547                           	psect	idataBANK3
   548  0EB8                     __pidataBANK3:
   549                           
   550                           ;initializer for _samf
   551  0EB8  3471               	retlw	113
   552  0EB9  3400               	retlw	0
   553  0EBA  3479               	retlw	121
   554  0EBB  3400               	retlw	0
   555  0EBC  345E               	retlw	94
   556  0EBD  3400               	retlw	0
   557  0EBE  3458               	retlw	88
   558  0EBF  3400               	retlw	0
   559  0EC0  347C               	retlw	124
   560  0EC1  3400               	retlw	0
   561  0EC2  345F               	retlw	95
   562  0EC3  3400               	retlw	0
   563  0EC4  346F               	retlw	111
   564  0EC5  3400               	retlw	0
   565  0EC6  347F               	retlw	127
   566  0EC7  3400               	retlw	0
   567  0EC8  3427               	retlw	39
   568  0EC9  3400               	retlw	0
   569  0ECA  347D               	retlw	125
   570  0ECB  3400               	retlw	0
   571  0ECC  346D               	retlw	109
   572  0ECD  3400               	retlw	0
   573  0ECE  3466               	retlw	102
   574  0ECF  3400               	retlw	0
   575  0ED0  344F               	retlw	79
   576  0ED1  3400               	retlw	0
   577  0ED2  345B               	retlw	91
   578  0ED3  3400               	retlw	0
   579  0ED4  3406               	retlw	6
   580  0ED5  3400               	retlw	0
   581  0ED6  343F               	retlw	63
   582  0ED7  3400               	retlw	0
   583  000E                     _PORTC	set	14
   584  000D                     _PORTB	set	13
   585  000C                     _PORTA	set	12
   586  0061                     _RA1	set	97
   587  0060                     _RA0	set	96
   588  0062                     _RA2	set	98
   589  0077                     _RC7	set	119
   590  0072                     _RC2	set	114
   591  0071                     _RC1	set	113
   592  0070                     _RC0	set	112
   593  0076                     _RC6	set	118
   594  0075                     _RC5	set	117
   595  0099                     _OSCCON	set	153
   596  008E                     _TRISC	set	142
   597  008D                     _TRISB	set	141
   598  008C                     _TRISA	set	140
   599  018D                     _ANSELB	set	397
   600  018C                     _ANSELA	set	396
   601                           
   602                           	psect	cinit
   603  07C9                     start_initialization:	
   604                           ; #config settings
   605                           
   606  07C9                     __initialization:
   607                           
   608                           ; Initialize objects allocated to BANK1
   609  07C9  3004               	movlw	low __pidataBANK1
   610  07CA  0084               	movwf	4
   611  07CB  3080               	movlw	(high __pidataBANK1)| (0+128)
   612  07CC  0085               	movwf	5
   613  07CD  30A0               	movlw	low __pdataBANK1
   614  07CE  0086               	movwf	6
   615  07CF  3000               	movlw	high __pdataBANK1
   616  07D0  0087               	movwf	7
   617  07D1  303C               	movlw	60
   618  07D2  318E  2657  3187   	fcall	init_ram
   619                           
   620                           ; Initialize objects allocated to BANK2
   621  07D5  3075               	movlw	low __pidataBANK2
   622  07D6  0084               	movwf	4
   623  07D7  308F               	movlw	(high __pidataBANK2)| (0+128)
   624  07D8  0085               	movwf	5
   625  07D9  3020               	movlw	low __pdataBANK2
   626  07DA  0086               	movwf	6
   627  07DB  3001               	movlw	high __pdataBANK2
   628  07DC  0087               	movwf	7
   629  07DD  3040               	movlw	64
   630  07DE  318E  2657  3187   	fcall	init_ram
   631                           
   632                           ; Initialize objects allocated to BANK3
   633  07E1  30B8               	movlw	low __pidataBANK3
   634  07E2  0084               	movwf	4
   635  07E3  308E               	movlw	(high __pidataBANK3)| (0+128)
   636  07E4  0085               	movwf	5
   637  07E5  30A0               	movlw	low __pdataBANK3
   638  07E6  0086               	movwf	6
   639  07E7  3001               	movlw	high __pdataBANK3
   640  07E8  0087               	movwf	7
   641  07E9  3020               	movlw	32
   642  07EA  318E  2657  3187   	fcall	init_ram
   643                           
   644                           ; Clear objects allocated to BANK0
   645  07ED  305A               	movlw	low __pbssBANK0
   646  07EE  0084               	movwf	4
   647  07EF  3000               	movlw	high __pbssBANK0
   648  07F0  0085               	movwf	5
   649  07F1  3016               	movlw	22
   650  07F2  318E  2651  3187   	fcall	clear_ram0
   651                           
   652                           ; Clear objects allocated to BANK1
   653  07F5  30DC               	movlw	low __pbssBANK1
   654  07F6  0084               	movwf	4
   655  07F7  3000               	movlw	high __pbssBANK1
   656  07F8  0085               	movwf	5
   657  07F9  300C               	movlw	12
   658  07FA  318E  2651  3187   	fcall	clear_ram0
   659  07FD                     end_of_initialization:	
   660                           ;End of C runtime variable initialization code
   661                           
   662  07FD                     __end_of__initialization:
   663  07FD  0020               	movlb	0
   664  07FE  3184  2CB4         	ljmp	_main	;jump to C main() function
   665                           
   666                           	psect	bssBANK0
   667  005A                     __pbssBANK0:
   668  005A                     _fugou:
   669  005A                     	ds	2
   670  005C                     _code1:
   671  005C                     	ds	2
   672  005E                     _code10:
   673  005E                     	ds	2
   674  0060                     _atai1:
   675  0060                     	ds	2
   676  0062                     _atai10:
   677  0062                     	ds	2
   678  0064                     _ccw:
   679  0064                     	ds	2
   680  0066                     _cw:
   681  0066                     	ds	2
   682  0068                     _flg:
   683  0068                     	ds	2
   684  006A                     _flag_P:
   685  006A                     	ds	2
   686  006C                     _flag_R:
   687  006C                     	ds	2
   688  006E                     _flag_sw3:
   689  006E                     	ds	2
   690                           
   691                           	psect	bssBANK1
   692  00DC                     __pbssBANK1:
   693  00DC                     _code100:
   694  00DC                     	ds	2
   695  00DE                     _code1000:
   696  00DE                     	ds	2
   697  00E0                     _count:
   698  00E0                     	ds	2
   699  00E2                     _atai:
   700  00E2                     	ds	2
   701  00E4                     _flag_sw2:
   702  00E4                     	ds	2
   703  00E6                     _flag_sw1:
   704  00E6                     	ds	2
   705                           
   706                           	psect	dataBANK1
   707  00A0                     __pdataBANK1:
   708  00A0                     _samp:
   709  00A0                     	ds	32
   710  00C0                     _num0:
   711  00C0                     	ds	20
   712  00D4                     _mojn:
   713  00D4                     	ds	4
   714  00D8                     _mojh:
   715  00D8                     	ds	4
   716                           
   717                           	psect	dataBANK2
   718  0120                     __pdataBANK2:
   719  0120                     _moji:
   720  0120                     	ds	20
   721  0134                     _mojf:
   722  0134                     	ds	12
   723  0140                     _moja:
   724  0140                     	ds	12
   725  014C                     _kisu:
   726  014C                     	ds	10
   727  0156                     _gusu:
   728  0156                     	ds	10
   729                           
   730                           	psect	dataBANK3
   731  01A0                     __pdataBANK3:
   732  01A0                     _samf:
   733  01A0                     	ds	32
   734                           
   735                           	psect	inittext
   736  0E57                     init_ram:
   737  0E57  00FE               	movwf	btemp
   738  0E58                     initloop:
   739  0E58  0012               	moviw fsr0++
   740  0E59  001E               	movwi fsr1++
   741  0E5A  0BFE               	decfsz	btemp,f
   742  0E5B  2E58               	goto	initloop
   743  0E5C  3400               	retlw	0
   744                           
   745                           	psect	clrtext
   746  0E51                     clear_ram0:	
   747                           ;	Called with FSR0 containing the base address, and
   748                           ;	WREG with the size to clear
   749                           
   750  0E51  0064               	clrwdt	;clear the watchdog before getting into this loop
   751  0E52                     clrloop0:
   752  0E52  0180               	clrf	0	;clear RAM location pointed to by FSR
   753  0E53  3101               	addfsr 0,1
   754  0E54  0B89               	decfsz	9,f	;Have we reached the end of clearing yet?
   755  0E55  2E52               	goto	clrloop0	;have we reached the end yet?
   756  0E56  3400               	retlw	0	;all done for this memory range, return
   757                           
   758                           	psect	cstackCOMMON
   759  0070                     __pcstackCOMMON:
   760  0070                     ?_portinit:
   761  0070                     ??_portinit:	
   762                           ; 1 bytes @ 0x0
   763                           
   764  0070                     ?_zenoff:	
   765                           ; 1 bytes @ 0x0
   766                           
   767  0070                     ??_zenoff:	
   768                           ; 1 bytes @ 0x0
   769                           
   770  0070                     ?_dynam:	
   771                           ; 1 bytes @ 0x0
   772                           
   773  0070                     ?_tactsw:	
   774                           ; 1 bytes @ 0x0
   775                           
   776  0070                     ??_tactsw:	
   777                           ; 1 bytes @ 0x0
   778                           
   779  0070                     ?_fclr:	
   780                           ; 1 bytes @ 0x0
   781                           
   782  0070                     ?_main:	
   783                           ; 1 bytes @ 0x0
   784                           
   785  0070                     ?___wmul:	
   786                           ; 1 bytes @ 0x0
   787                           
   788  0070                     ?___awmod:	
   789                           ; 2 bytes @ 0x0
   790                           
   791  0070                     ?___lwdiv:	
   792                           ; 2 bytes @ 0x0
   793                           
   794  0070                     dynam@dig1data:	
   795                           ; 2 bytes @ 0x0
   796                           
   797  0070                     fclr@flg:	
   798                           ; 2 bytes @ 0x0
   799                           
   800  0070                     ___wmul@multiplier:	
   801                           ; 2 bytes @ 0x0
   802                           
   803  0070                     ___awmod@divisor:	
   804                           ; 2 bytes @ 0x0
   805                           
   806  0070                     ___lwdiv@divisor:	
   807                           ; 2 bytes @ 0x0
   808                           
   809                           
   810                           ; 2 bytes @ 0x0
   811  0070                     	ds	2
   812  0072                     ??_fclr:
   813  0072                     dynam@dig2data:	
   814                           ; 1 bytes @ 0x2
   815                           
   816  0072                     tactsw@b:	
   817                           ; 2 bytes @ 0x2
   818                           
   819  0072                     ___wmul@multiplicand:	
   820                           ; 2 bytes @ 0x2
   821                           
   822  0072                     ___awmod@dividend:	
   823                           ; 2 bytes @ 0x2
   824                           
   825  0072                     ___lwdiv@dividend:	
   826                           ; 2 bytes @ 0x2
   827                           
   828                           
   829                           ; 2 bytes @ 0x2
   830  0072                     	ds	2
   831  0074                     ??___wmul:
   832  0074                     ??___awmod:	
   833                           ; 1 bytes @ 0x4
   834                           
   835  0074                     ??___lwdiv:	
   836                           ; 1 bytes @ 0x4
   837                           
   838  0074                     dynam@smdata:	
   839                           ; 1 bytes @ 0x4
   840                           
   841  0074                     tactsw@c:	
   842                           ; 2 bytes @ 0x4
   843                           
   844  0074                     ___wmul@product:	
   845                           ; 2 bytes @ 0x4
   846                           
   847                           
   848                           ; 2 bytes @ 0x4
   849  0074                     	ds	1
   850  0075                     ___awmod@counter:
   851  0075                     ___lwdiv@quotient:	
   852                           ; 1 bytes @ 0x5
   853                           
   854                           
   855                           ; 2 bytes @ 0x5
   856  0075                     	ds	1
   857  0076                     ?___awdiv:
   858  0076                     ___awmod@sign:	
   859                           ; 2 bytes @ 0x6
   860                           
   861  0076                     dynam@tr:	
   862                           ; 1 bytes @ 0x6
   863                           
   864  0076                     tactsw@a:	
   865                           ; 2 bytes @ 0x6
   866                           
   867  0076                     ___awdiv@divisor:	
   868                           ; 2 bytes @ 0x6
   869                           
   870                           
   871                           ; 2 bytes @ 0x6
   872  0076                     	ds	1
   873  0077                     ___lwdiv@counter:
   874                           
   875                           ; 1 bytes @ 0x7
   876  0077                     	ds	1
   877  0078                     ??_dynam:
   878  0078                     ?_tact:	
   879                           ; 1 bytes @ 0x8
   880                           
   881  0078                     ??_motor:	
   882                           ; 1 bytes @ 0x8
   883                           
   884  0078                     tact@mode:	
   885                           ; 1 bytes @ 0x8
   886                           
   887  0078                     motor@i:	
   888                           ; 2 bytes @ 0x8
   889                           
   890  0078                     ___awdiv@dividend:	
   891                           ; 2 bytes @ 0x8
   892                           
   893                           
   894                           ; 2 bytes @ 0x8
   895  0078                     	ds	2
   896  007A                     ??_tact:
   897  007A                     ??_waitSEGStop:	
   898                           ; 1 bytes @ 0xA
   899                           
   900  007A                     ??___awdiv:	
   901                           ; 1 bytes @ 0xA
   902                           
   903                           
   904                           ; 1 bytes @ 0xA
   905  007A                     	ds	2
   906  007C                     ??_main:
   907                           
   908                           ; 1 bytes @ 0xC
   909  007C                     	ds	1
   910                           
   911                           	psect	cstackBANK0
   912  0020                     __pcstackBANK0:
   913  0020                     ___awdiv@counter:
   914  0020                     dynam@smd:	
   915                           ; 1 bytes @ 0x0
   916                           
   917                           
   918                           ; 2 bytes @ 0x0
   919  0020                     	ds	1
   920  0021                     ___awdiv@sign:
   921                           
   922                           ; 1 bytes @ 0x1
   923  0021                     	ds	1
   924  0022                     dynam@tm:
   925  0022                     ___awdiv@quotient:	
   926                           ; 2 bytes @ 0x2
   927                           
   928                           
   929                           ; 2 bytes @ 0x2
   930  0022                     	ds	2
   931  0024                     ?_hen7:
   932  0024                     dynam@j:	
   933                           ; 1 bytes @ 0x4
   934                           
   935  0024                     hen7@value:	
   936                           ; 2 bytes @ 0x4
   937                           
   938                           
   939                           ; 2 bytes @ 0x4
   940  0024                     	ds	2
   941  0026                     dynam@ext:
   942  0026                     hen7@ns1:	
   943                           ; 2 bytes @ 0x6
   944                           
   945                           
   946                           ; 2 bytes @ 0x6
   947  0026                     	ds	2
   948  0028                     ??_hen7:
   949  0028                     ?_motor:	
   950                           ; 1 bytes @ 0x8
   951                           
   952  0028                     ?_waitSEGStop:	
   953                           ; 1 bytes @ 0x8
   954                           
   955  0028                     waitSEGStop@seg1:	
   956                           ; 2 bytes @ 0x8
   957                           
   958  0028                     motor@kakudo:	
   959                           ; 2 bytes @ 0x8
   960                           
   961                           
   962                           ; 2 bytes @ 0x8
   963  0028                     	ds	2
   964  002A                     waitSEGStop@seg2:
   965  002A                     motor@dig1data:	
   966                           ; 2 bytes @ 0xA
   967                           
   968                           
   969                           ; 2 bytes @ 0xA
   970  002A                     	ds	2
   971  002C                     hen7@value1:
   972  002C                     waitSEGStop@wt:	
   973                           ; 2 bytes @ 0xC
   974                           
   975  002C                     motor@dig2data:	
   976                           ; 2 bytes @ 0xC
   977                           
   978                           
   979                           ; 2 bytes @ 0xC
   980  002C                     	ds	2
   981  002E                     hen7@value10:
   982  002E                     waitSEGStop@cpSW1:	
   983                           ; 2 bytes @ 0xE
   984                           
   985  002E                     motor@smdata:	
   986                           ; 2 bytes @ 0xE
   987                           
   988                           
   989                           ; 2 bytes @ 0xE
   990  002E                     	ds	2
   991  0030                     hen7@value100:
   992  0030                     waitSEGStop@cpSW2:	
   993                           ; 2 bytes @ 0x10
   994                           
   995  0030                     motor@tr:	
   996                           ; 2 bytes @ 0x10
   997                           
   998                           
   999                           ; 2 bytes @ 0x10
  1000  0030                     	ds	2
  1001  0032                     hen7@l:
  1002  0032                     waitSEGStop@i:	
  1003                           ; 2 bytes @ 0x12
  1004                           
  1005                           
  1006                           ; 2 bytes @ 0x12
  1007  0032                     	ds	2
  1008  0034                     hen7@m:
  1009                           
  1010                           ; 2 bytes @ 0x14
  1011  0034                     	ds	2
  1012  0036                     hen7@n:
  1013                           
  1014                           ; 2 bytes @ 0x16
  1015  0036                     	ds	6
  1016  003C                     main@ataiL2:
  1017                           
  1018                           ; 2 bytes @ 0x1C
  1019  003C                     	ds	2
  1020  003E                     main@ataiR2:
  1021                           
  1022                           ; 2 bytes @ 0x1E
  1023  003E                     	ds	2
  1024  0040                     main@m:
  1025                           
  1026                           ; 2 bytes @ 0x20
  1027  0040                     	ds	2
  1028  0042                     main@time:
  1029                           
  1030                           ; 2 bytes @ 0x22
  1031  0042                     	ds	2
  1032  0044                     main@ans2:
  1033                           
  1034                           ; 2 bytes @ 0x24
  1035  0044                     	ds	2
  1036  0046                     main@k:
  1037                           
  1038                           ; 2 bytes @ 0x26
  1039  0046                     	ds	2
  1040  0048                     main@segL2:
  1041                           
  1042                           ; 2 bytes @ 0x28
  1043  0048                     	ds	2
  1044  004A                     main@segR2:
  1045                           
  1046                           ; 2 bytes @ 0x2A
  1047  004A                     	ds	2
  1048  004C                     main@ataiL:
  1049                           
  1050                           ; 2 bytes @ 0x2C
  1051  004C                     	ds	2
  1052  004E                     main@ataiR:
  1053                           
  1054                           ; 2 bytes @ 0x2E
  1055  004E                     	ds	2
  1056  0050                     main@i:
  1057                           
  1058                           ; 2 bytes @ 0x30
  1059  0050                     	ds	2
  1060  0052                     main@ans:
  1061                           
  1062                           ; 2 bytes @ 0x32
  1063  0052                     	ds	2
  1064  0054                     main@segL:
  1065                           
  1066                           ; 2 bytes @ 0x34
  1067  0054                     	ds	2
  1068  0056                     main@segR:
  1069                           
  1070                           ; 2 bytes @ 0x36
  1071  0056                     	ds	2
  1072  0058                     main@zyoutai:
  1073                           
  1074                           ; 2 bytes @ 0x38
  1075  0058                     	ds	2
  1076                           
  1077                           	psect	maintext
  1078  04B4                     __pmaintext:	
  1079 ;;
  1080 ;;Main: autosize = 0, tempsize = 1, incstack = 0, save=0
  1081 ;;
  1082 ;; *************** function _main *****************
  1083 ;; Defined at:
  1084 ;;		line 519 in file "Q5.c"
  1085 ;; Parameters:    Size  Location     Type
  1086 ;;		None
  1087 ;; Auto vars:     Size  Location     Type
  1088 ;;  zyoutai         2   56[BANK0 ] int 
  1089 ;;  segR            2   54[BANK0 ] unsigned short 
  1090 ;;  segL            2   52[BANK0 ] unsigned short 
  1091 ;;  ans             2   50[BANK0 ] int 
  1092 ;;  i               2   48[BANK0 ] int 
  1093 ;;  ataiR           2   46[BANK0 ] int 
  1094 ;;  ataiL           2   44[BANK0 ] int 
  1095 ;;  segR2           2   42[BANK0 ] unsigned short 
  1096 ;;  segL2           2   40[BANK0 ] unsigned short 
  1097 ;;  k               2   38[BANK0 ] int 
  1098 ;;  ans2            2   36[BANK0 ] int 
  1099 ;;  time            2   34[BANK0 ] int 
  1100 ;;  m               2   32[BANK0 ] int 
  1101 ;;  ataiR2          2   30[BANK0 ] int 
  1102 ;;  ataiL2          2   28[BANK0 ] int 
  1103 ;;  n               2    0        int 
  1104 ;;  j               2    0        int 
  1105 ;; Return value:  Size  Location     Type
  1106 ;;                  1    wreg      void 
  1107 ;; Registers used:
  1108 ;;		wreg, fsr0l, fsr0h, fsr1l, fsr1h, status,2, status,0, pclath, cstack
  1109 ;; Tracked objects:
  1110 ;;		On entry : B1F/0
  1111 ;;		On exit  : 0/0
  1112 ;;		Unchanged: 0/0
  1113 ;; Data sizes:     COMMON   BANK0   BANK1   BANK2   BANK3   BANK4   BANK5   BANK6   BANK7   BANK8   BANK9  BANK10  BANK1
      +1  BANK12
  1114 ;;      Params:         0       0       0       0       0       0       0       0       0       0       0       0       
      +0       0
  1115 ;;      Locals:         0      34       0       0       0       0       0       0       0       0       0       0       
      +0       0
  1116 ;;      Temps:          1       0       0       0       0       0       0       0       0       0       0       0       
      +0       0
  1117 ;;      Totals:         1      34       0       0       0       0       0       0       0       0       0       0       
      +0       0
  1118 ;;Total ram usage:       35 bytes
  1119 ;; Hardware stack levels required when called:    3
  1120 ;; This function calls:
  1121 ;;		___awdiv
  1122 ;;		___wmul
  1123 ;;		_dynam
  1124 ;;		_fclr
  1125 ;;		_hen7
  1126 ;;		_motor
  1127 ;;		_portinit
  1128 ;;		_tact
  1129 ;;		_waitSEGStop
  1130 ;;		_zenoff
  1131 ;; This function is called by:
  1132 ;;		Startup code after reset
  1133 ;; This function uses a non-reentrant model
  1134 ;;
  1135                           
  1136                           
  1137                           ;psect for function _main
  1138  04B4                     _main:
  1139  04B4                     l2697:	
  1140                           ;incstack = 0
  1141                           ; Regs used in _main: [wreg-fsr1h+status,2+status,0+pclath+cstack]
  1142                           
  1143                           
  1144                           ;Q5.c: 522:     OSCCON=0x7A;
  1145  04B4  307A               	movlw	122
  1146  04B5  0021               	movlb	1	; select bank1
  1147  04B6  0099               	movwf	25	;volatile
  1148  04B7                     l2699:
  1149                           
  1150                           ;Q5.c: 524:     portinit();
  1151  04B7  318E  2666  3184   	fcall	_portinit
  1152                           
  1153                           ;Q5.c: 526:     zenoff();
  1154  04BA  318E  265D  3184   	fcall	_zenoff
  1155  04BD                     l2701:
  1156  04BD                     l2703:
  1157  04BD                     l2705:
  1158  04BD  0020               	movlb	0	; select bank0
  1159  04BE  01C6               	clrf	main@k
  1160  04BF  01C7               	clrf	main@k+1
  1161  04C0                     l2707:
  1162  04C0  01C0               	clrf	main@m
  1163  04C1  01C1               	clrf	main@m+1
  1164  04C2                     l2709:
  1165  04C2                     l288:	
  1166                           ;Q5.c: 531:     while((RA0!=1)||(RA1!=1)||(RA2!=1));
  1167                           
  1168  04C2  1C0C               	btfss	12,0	;volatile
  1169  04C3  2CC5               	goto	u2821
  1170  04C4  2CC6               	goto	u2820
  1171  04C5                     u2821:
  1172  04C5  2CC2               	goto	l288
  1173  04C6                     u2820:
  1174  04C6                     l2711:
  1175  04C6  1C8C               	btfss	12,1	;volatile
  1176  04C7  2CC9               	goto	u2831
  1177  04C8  2CCA               	goto	u2830
  1178  04C9                     u2831:
  1179  04C9  2CC2               	goto	l288
  1180  04CA                     u2830:
  1181  04CA                     l2713:
  1182  04CA  1D0C               	btfss	12,2	;volatile
  1183  04CB  2CCD               	goto	u2841
  1184  04CC  2CCE               	goto	u2840
  1185  04CD                     u2841:
  1186  04CD  2CC2               	goto	l288
  1187  04CE                     u2840:
  1188  04CE                     l290:
  1189                           
  1190                           ;Q5.c: 534:     RC0=RC2=RC1=1;
  1191  04CE  148E               	bsf	14,1	;volatile
  1192  04CF  188E               	btfsc	14,1	;volatile
  1193  04D0  2CD2               	goto	u2851
  1194  04D1  2CD5               	goto	u2850
  1195  04D2                     u2851:
  1196  04D2  0020               	movlb	0	; select bank0
  1197  04D3  150E               	bsf	14,2	;volatile
  1198  04D4  2CD7               	goto	u2864
  1199  04D5                     u2850:
  1200  04D5  0020               	movlb	0	; select bank0
  1201  04D6  110E               	bcf	14,2	;volatile
  1202  04D7                     u2864:
  1203  04D7  190E               	btfsc	14,2	;volatile
  1204  04D8  2CDA               	goto	u2861
  1205  04D9  2CDD               	goto	u2860
  1206  04DA                     u2861:
  1207  04DA  0020               	movlb	0	; select bank0
  1208  04DB  140E               	bsf	14,0	;volatile
  1209  04DC  2CDF               	goto	u2874
  1210  04DD                     u2860:
  1211  04DD  0020               	movlb	0	; select bank0
  1212  04DE  100E               	bcf	14,0	;volatile
  1213  04DF                     u2874:
  1214  04DF                     l2715:
  1215                           
  1216                           ;Q5.c: 537:     fclr(2);
  1217  04DF  3002               	movlw	2
  1218  04E0  00F0               	movwf	fclr@flg
  1219  04E1  3000               	movlw	0
  1220  04E2  00F1               	movwf	fclr@flg+1
  1221  04E3  318E  2698  3184   	fcall	_fclr
  1222  04E6                     l2717:
  1223  04E6                     l2719:
  1224                           
  1225                           ;Q5.c: 550:     unsigned short segL = 0;
  1226  04E6  0020               	movlb	0	; select bank0
  1227  04E7  01D4               	clrf	main@segL
  1228  04E8  01D5               	clrf	main@segL+1
  1229  04E9                     l2721:
  1230                           
  1231                           ;Q5.c: 551:     unsigned short segR = 0;
  1232  04E9  01D6               	clrf	main@segR
  1233  04EA  01D7               	clrf	main@segR+1
  1234  04EB                     l2723:
  1235                           
  1236                           ;Q5.c: 553:     unsigned short segL2 = 0;
  1237  04EB  01C8               	clrf	main@segL2
  1238  04EC  01C9               	clrf	main@segL2+1
  1239  04ED                     l2725:
  1240                           
  1241                           ;Q5.c: 554:     unsigned short segR2 = 0;
  1242  04ED  01CA               	clrf	main@segR2
  1243  04EE  01CB               	clrf	main@segR2+1
  1244  04EF                     l2727:
  1245                           
  1246                           ;Q5.c: 556:     int ataiL = 0;
  1247  04EF  01CC               	clrf	main@ataiL
  1248  04F0  01CD               	clrf	main@ataiL+1
  1249  04F1                     l2729:
  1250                           
  1251                           ;Q5.c: 557:     int ataiR = 0;
  1252  04F1  01CE               	clrf	main@ataiR
  1253  04F2  01CF               	clrf	main@ataiR+1
  1254  04F3                     l2731:
  1255                           
  1256                           ;Q5.c: 559:     int ataiL2 = 0;
  1257  04F3  01BC               	clrf	main@ataiL2
  1258  04F4  01BD               	clrf	main@ataiL2+1
  1259  04F5                     l2733:
  1260                           
  1261                           ;Q5.c: 560:     int ataiR2 = 0;
  1262  04F5  01BE               	clrf	main@ataiR2
  1263  04F6  01BF               	clrf	main@ataiR2+1
  1264  04F7                     l2735:
  1265                           
  1266                           ;Q5.c: 562:     int zyoutai = 0;
  1267  04F7  01D8               	clrf	main@zyoutai
  1268  04F8  01D9               	clrf	main@zyoutai+1
  1269  04F9                     l2737:
  1270                           
  1271                           ;Q5.c: 573:     int ans = 0;
  1272  04F9  01D2               	clrf	main@ans
  1273  04FA  01D3               	clrf	main@ans+1
  1274  04FB                     l2739:
  1275                           
  1276                           ;Q5.c: 574:     int ans2 = 0;
  1277  04FB  01C4               	clrf	main@ans2
  1278  04FC  01C5               	clrf	main@ans2+1
  1279  04FD                     l292:	
  1280                           ;Q5.c: 577:     while(1){
  1281                           
  1282                           
  1283                           ;Q5.c: 580:         dynam(segL,segR,0,0);
  1284  04FD  0855               	movf	main@segL+1,w
  1285  04FE  00F1               	movwf	dynam@dig1data+1
  1286  04FF  0854               	movf	main@segL,w
  1287  0500  00F0               	movwf	dynam@dig1data
  1288  0501  0857               	movf	main@segR+1,w
  1289  0502  00F3               	movwf	dynam@dig2data+1
  1290  0503  0856               	movf	main@segR,w
  1291  0504  00F2               	movwf	dynam@dig2data
  1292  0505  3000               	movlw	0
  1293  0506  00F4               	movwf	dynam@smdata
  1294  0507  00F5               	movwf	dynam@smdata+1
  1295  0508  3000               	movlw	0
  1296  0509  00F6               	movwf	dynam@tr
  1297  050A  00F7               	movwf	dynam@tr+1
  1298  050B  3181  2176  3184   	fcall	_dynam
  1299                           
  1300                           ;Q5.c: 581:         dynam(segL2,segR2,0,0);
  1301  050E  0020               	movlb	0	; select bank0
  1302  050F  0849               	movf	main@segL2+1,w
  1303  0510  00F1               	movwf	dynam@dig1data+1
  1304  0511  0848               	movf	main@segL2,w
  1305  0512  00F0               	movwf	dynam@dig1data
  1306  0513  084B               	movf	main@segR2+1,w
  1307  0514  00F3               	movwf	dynam@dig2data+1
  1308  0515  084A               	movf	main@segR2,w
  1309  0516  00F2               	movwf	dynam@dig2data
  1310  0517  3000               	movlw	0
  1311  0518  00F4               	movwf	dynam@smdata
  1312  0519  00F5               	movwf	dynam@smdata+1
  1313  051A  3000               	movlw	0
  1314  051B  00F6               	movwf	dynam@tr
  1315  051C  00F7               	movwf	dynam@tr+1
  1316  051D  3181  2176  3184   	fcall	_dynam
  1317  0520                     l2741:
  1318                           
  1319                           ;Q5.c: 584:         if(RA0 == 0 && RA1 == 1){
  1320  0520  0020               	movlb	0	; select bank0
  1321  0521  180C               	btfsc	12,0	;volatile
  1322  0522  2D24               	goto	u2881
  1323  0523  2D25               	goto	u2880
  1324  0524                     u2881:
  1325  0524  2D63               	goto	l2761
  1326  0525                     u2880:
  1327  0525                     l2743:
  1328  0525  1C8C               	btfss	12,1	;volatile
  1329  0526  2D28               	goto	u2891
  1330  0527  2D29               	goto	u2890
  1331  0528                     u2891:
  1332  0528  2D63               	goto	l2761
  1333  0529                     u2890:
  1334  0529                     l2745:
  1335                           
  1336                           ;Q5.c: 586:             segL = 0x40;
  1337  0529  3040               	movlw	64
  1338  052A  00D4               	movwf	main@segL
  1339  052B  3000               	movlw	0
  1340  052C  00D5               	movwf	main@segL+1
  1341                           
  1342                           ;Q5.c: 587:             segR = 0x40;
  1343  052D  3040               	movlw	64
  1344  052E  00D6               	movwf	main@segR
  1345  052F  3000               	movlw	0
  1346  0530  00D7               	movwf	main@segR+1
  1347  0531                     l2747:
  1348                           
  1349                           ;Q5.c: 589:             tact(2);
  1350  0531  3002               	movlw	2
  1351  0532  00F8               	movwf	tact@mode
  1352  0533  3000               	movlw	0
  1353  0534  00F9               	movwf	tact@mode+1
  1354  0535  318F  27B5  3184   	fcall	_tact
  1355  0538                     l2749:
  1356                           
  1357                           ;Q5.c: 590:             if(((flag_sw3==0)&&(flag_P==1))){
  1358  0538  0020               	movlb	0	; select bank0
  1359  0539  086E               	movf	_flag_sw3,w
  1360  053A  046F               	iorwf	_flag_sw3+1,w
  1361  053B  1D03               	btfss	3,2
  1362  053C  2D3E               	goto	u2901
  1363  053D  2D3F               	goto	u2900
  1364  053E                     u2901:
  1365  053E  2D63               	goto	l2761
  1366  053F                     u2900:
  1367  053F                     l2751:
  1368  053F  036A               	decf	_flag_P,w
  1369  0540  046B               	iorwf	_flag_P+1,w
  1370  0541  1D03               	btfss	3,2
  1371  0542  2D44               	goto	u2911
  1372  0543  2D45               	goto	u2910
  1373  0544                     u2911:
  1374  0544  2D63               	goto	l2761
  1375  0545                     u2910:
  1376  0545                     l2753:
  1377                           
  1378                           ;Q5.c: 592:                 if(ataiL == 0){
  1379  0545  084C               	movf	main@ataiL,w
  1380  0546  044D               	iorwf	main@ataiL+1,w
  1381  0547  1D03               	btfss	3,2
  1382  0548  2D4A               	goto	u2921
  1383  0549  2D4B               	goto	u2920
  1384  054A                     u2921:
  1385  054A  2D4F               	goto	l295
  1386  054B                     u2920:
  1387  054B                     l2755:
  1388                           
  1389                           ;Q5.c: 593:                     ataiL = 10;
  1390  054B  300A               	movlw	10
  1391  054C  00CC               	movwf	main@ataiL
  1392  054D  3000               	movlw	0
  1393  054E  00CD               	movwf	main@ataiL+1
  1394  054F                     l295:	
  1395                           ;Q5.c: 594:                 }
  1396                           
  1397                           
  1398                           ;Q5.c: 596:                 ataiL--;
  1399  054F  30FF               	movlw	255
  1400  0550  07CC               	addwf	main@ataiL,f
  1401  0551  30FF               	movlw	255
  1402  0552  3DCD               	addwfc	main@ataiL+1,f
  1403  0553                     l2757:
  1404                           
  1405                           ;Q5.c: 598:                 fclr(2);
  1406  0553  3002               	movlw	2
  1407  0554  00F0               	movwf	fclr@flg
  1408  0555  3000               	movlw	0
  1409  0556  00F1               	movwf	fclr@flg+1
  1410  0557  318E  2698  3184   	fcall	_fclr
  1411  055A                     l2759:
  1412                           
  1413                           ;Q5.c: 600:                 segL = num0[k];
  1414  055A  0020               	movlb	0	; select bank0
  1415  055B  3546               	lslf	main@k,w
  1416  055C  3EC0               	addlw	(low (_num0| 0))& (0+255)
  1417  055D  0086               	movwf	6
  1418  055E  0187               	clrf	7
  1419  055F  3F40               	moviw [0]fsr1
  1420  0560  00D4               	movwf	main@segL
  1421  0561  3F41               	moviw [1]fsr1
  1422  0562  00D5               	movwf	main@segL+1
  1423  0563                     l2761:
  1424                           
  1425                           ;Q5.c: 606:         if(RA0 == 1 && RA1 == 1 && segR != 0x40){
  1426  0563  1C0C               	btfss	12,0	;volatile
  1427  0564  2D66               	goto	u2931
  1428  0565  2D67               	goto	u2930
  1429  0566                     u2931:
  1430  0566  2DB4               	goto	l2785
  1431  0567                     u2930:
  1432  0567                     l2763:
  1433  0567  1C8C               	btfss	12,1	;volatile
  1434  0568  2D6A               	goto	u2941
  1435  0569  2D6B               	goto	u2940
  1436  056A                     u2941:
  1437  056A  2DB4               	goto	l2785
  1438  056B                     u2940:
  1439  056B                     l2765:
  1440  056B  3040               	movlw	64
  1441  056C  0656               	xorwf	main@segR,w
  1442  056D  0457               	iorwf	main@segR+1,w
  1443  056E  1903               	btfsc	3,2
  1444  056F  2D71               	goto	u2951
  1445  0570  2D72               	goto	u2950
  1446  0571                     u2951:
  1447  0571  2DB4               	goto	l2785
  1448  0572                     u2950:
  1449  0572                     l2767:
  1450                           
  1451                           ;Q5.c: 608:             if(segR == 0x40){
  1452  0572  3040               	movlw	64
  1453  0573  0656               	xorwf	main@segR,w
  1454  0574  0457               	iorwf	main@segR+1,w
  1455  0575  1D03               	btfss	3,2
  1456  0576  2D78               	goto	u2961
  1457  0577  2D79               	goto	u2960
  1458  0578                     u2961:
  1459  0578  2D81               	goto	l2771
  1460  0579                     u2960:
  1461  0579                     l2769:
  1462                           
  1463                           ;Q5.c: 609:                 segR = num0[0];
  1464  0579  0021               	movlb	1	; select bank1
  1465  057A  0841               	movf	(_num0+1)^(0+128),w
  1466  057B  0020               	movlb	0	; select bank0
  1467  057C  00D7               	movwf	main@segR+1
  1468  057D  0021               	movlb	1	; select bank1
  1469  057E  0840               	movf	_num0^(0+128),w
  1470  057F  0020               	movlb	0	; select bank0
  1471  0580  00D6               	movwf	main@segR
  1472  0581                     l2771:
  1473                           
  1474                           ;Q5.c: 612:             tact(2);
  1475  0581  3002               	movlw	2
  1476  0582  00F8               	movwf	tact@mode
  1477  0583  3000               	movlw	0
  1478  0584  00F9               	movwf	tact@mode+1
  1479  0585  318F  27B5  3184   	fcall	_tact
  1480  0588                     l2773:
  1481                           
  1482                           ;Q5.c: 613:             if(((flag_sw3==0)&&(flag_P==1))){
  1483  0588  0020               	movlb	0	; select bank0
  1484  0589  086E               	movf	_flag_sw3,w
  1485  058A  046F               	iorwf	_flag_sw3+1,w
  1486  058B  1D03               	btfss	3,2
  1487  058C  2D8E               	goto	u2971
  1488  058D  2D8F               	goto	u2970
  1489  058E                     u2971:
  1490  058E  2DB4               	goto	l2785
  1491  058F                     u2970:
  1492  058F                     l2775:
  1493  058F  036A               	decf	_flag_P,w
  1494  0590  046B               	iorwf	_flag_P+1,w
  1495  0591  1D03               	btfss	3,2
  1496  0592  2D94               	goto	u2981
  1497  0593  2D95               	goto	u2980
  1498  0594                     u2981:
  1499  0594  2DB4               	goto	l2785
  1500  0595                     u2980:
  1501  0595                     l2777:
  1502                           
  1503                           ;Q5.c: 615:                 if(ataiR == 9){
  1504  0595  3009               	movlw	9
  1505  0596  064E               	xorwf	main@ataiR,w
  1506  0597  044F               	iorwf	main@ataiR+1,w
  1507  0598  1D03               	btfss	3,2
  1508  0599  2D9B               	goto	u2991
  1509  059A  2D9C               	goto	u2990
  1510  059B                     u2991:
  1511  059B  2DA0               	goto	l299
  1512  059C                     u2990:
  1513  059C                     l2779:
  1514                           
  1515                           ;Q5.c: 616:                     ataiR = -1;
  1516  059C  30FF               	movlw	255
  1517  059D  00CE               	movwf	main@ataiR
  1518  059E  30FF               	movlw	255
  1519  059F  00CF               	movwf	main@ataiR+1
  1520  05A0                     l299:	
  1521                           ;Q5.c: 617:                 }
  1522                           
  1523                           
  1524                           ;Q5.c: 619:                 ataiR++;
  1525  05A0  3001               	movlw	1
  1526  05A1  07CE               	addwf	main@ataiR,f
  1527  05A2  3000               	movlw	0
  1528  05A3  3DCF               	addwfc	main@ataiR+1,f
  1529  05A4                     l2781:
  1530                           
  1531                           ;Q5.c: 621:                 fclr(2);
  1532  05A4  3002               	movlw	2
  1533  05A5  00F0               	movwf	fclr@flg
  1534  05A6  3000               	movlw	0
  1535  05A7  00F1               	movwf	fclr@flg+1
  1536  05A8  318E  2698  3184   	fcall	_fclr
  1537  05AB                     l2783:
  1538                           
  1539                           ;Q5.c: 623:                 ataiR = num0[m];
  1540  05AB  0020               	movlb	0	; select bank0
  1541  05AC  3540               	lslf	main@m,w
  1542  05AD  3EC0               	addlw	(low (_num0| 0))& (0+255)
  1543  05AE  0086               	movwf	6
  1544  05AF  0187               	clrf	7
  1545  05B0  3F40               	moviw [0]fsr1
  1546  05B1  00CE               	movwf	main@ataiR
  1547  05B2  3F41               	moviw [1]fsr1
  1548  05B3  00CF               	movwf	main@ataiR+1
  1549  05B4                     l2785:
  1550                           
  1551                           ;Q5.c: 629:         if(RA0 ==1 && RA1 == 0 && segR != 0x40 && segL != 0x40 && zyoutai ==
      +                           0){
  1552  05B4  1C0C               	btfss	12,0	;volatile
  1553  05B5  2DB7               	goto	u3001
  1554  05B6  2DB8               	goto	u3000
  1555  05B7                     u3001:
  1556  05B7  2DD4               	goto	l2797
  1557  05B8                     u3000:
  1558  05B8                     l2787:
  1559  05B8  188C               	btfsc	12,1	;volatile
  1560  05B9  2DBB               	goto	u3011
  1561  05BA  2DBC               	goto	u3010
  1562  05BB                     u3011:
  1563  05BB  2DD4               	goto	l2797
  1564  05BC                     u3010:
  1565  05BC                     l2789:
  1566  05BC  3040               	movlw	64
  1567  05BD  0656               	xorwf	main@segR,w
  1568  05BE  0457               	iorwf	main@segR+1,w
  1569  05BF  1903               	btfsc	3,2
  1570  05C0  2DC2               	goto	u3021
  1571  05C1  2DC3               	goto	u3020
  1572  05C2                     u3021:
  1573  05C2  2DD4               	goto	l2797
  1574  05C3                     u3020:
  1575  05C3                     l2791:
  1576  05C3  3040               	movlw	64
  1577  05C4  0654               	xorwf	main@segL,w
  1578  05C5  0455               	iorwf	main@segL+1,w
  1579  05C6  1903               	btfsc	3,2
  1580  05C7  2DC9               	goto	u3031
  1581  05C8  2DCA               	goto	u3030
  1582  05C9                     u3031:
  1583  05C9  2DD4               	goto	l2797
  1584  05CA                     u3030:
  1585  05CA                     l2793:
  1586  05CA  0858               	movf	main@zyoutai,w
  1587  05CB  0459               	iorwf	main@zyoutai+1,w
  1588  05CC  1D03               	btfss	3,2
  1589  05CD  2DCF               	goto	u3041
  1590  05CE  2DD0               	goto	u3040
  1591  05CF                     u3041:
  1592  05CF  2DD4               	goto	l2797
  1593  05D0                     u3040:
  1594  05D0                     l2795:
  1595                           
  1596                           ;Q5.c: 630:             zyoutai = 1;
  1597  05D0  3001               	movlw	1
  1598  05D1  00D8               	movwf	main@zyoutai
  1599  05D2  3000               	movlw	0
  1600  05D3  00D9               	movwf	main@zyoutai+1
  1601  05D4                     l2797:
  1602                           
  1603                           ;Q5.c: 633:         if(RA0 ==1 && RA1 == 1 && segR != 0x40 && segL != 0x40 && zyoutai ==
      +                           1){
  1604  05D4  1C0C               	btfss	12,0	;volatile
  1605  05D5  2DD7               	goto	u3051
  1606  05D6  2DD8               	goto	u3050
  1607  05D7                     u3051:
  1608  05D7  2ECB               	goto	l2851
  1609  05D8                     u3050:
  1610  05D8                     l2799:
  1611  05D8  1C8C               	btfss	12,1	;volatile
  1612  05D9  2DDB               	goto	u3061
  1613  05DA  2DDC               	goto	u3060
  1614  05DB                     u3061:
  1615  05DB  2ECB               	goto	l2851
  1616  05DC                     u3060:
  1617  05DC                     l2801:
  1618  05DC  3040               	movlw	64
  1619  05DD  0656               	xorwf	main@segR,w
  1620  05DE  0457               	iorwf	main@segR+1,w
  1621  05DF  1903               	btfsc	3,2
  1622  05E0  2DE2               	goto	u3071
  1623  05E1  2DE3               	goto	u3070
  1624  05E2                     u3071:
  1625  05E2  2ECB               	goto	l2851
  1626  05E3                     u3070:
  1627  05E3                     l2803:
  1628  05E3  3040               	movlw	64
  1629  05E4  0654               	xorwf	main@segL,w
  1630  05E5  0455               	iorwf	main@segL+1,w
  1631  05E6  1903               	btfsc	3,2
  1632  05E7  2DE9               	goto	u3081
  1633  05E8  2DEA               	goto	u3080
  1634  05E9                     u3081:
  1635  05E9  2ECB               	goto	l2851
  1636  05EA                     u3080:
  1637  05EA                     l2805:
  1638  05EA  0358               	decf	main@zyoutai,w
  1639  05EB  0459               	iorwf	main@zyoutai+1,w
  1640  05EC  1D03               	btfss	3,2
  1641  05ED  2DEF               	goto	u3091
  1642  05EE  2DF0               	goto	u3090
  1643  05EF                     u3091:
  1644  05EF  2ECB               	goto	l2851
  1645  05F0                     u3090:
  1646  05F0                     l2807:
  1647                           
  1648                           ;Q5.c: 635:             zyoutai = 0;
  1649  05F0  01D8               	clrf	main@zyoutai
  1650  05F1  01D9               	clrf	main@zyoutai+1
  1651  05F2                     l2809:
  1652                           
  1653                           ;Q5.c: 637:             ans = (ataiL*10)+ataiR;
  1654  05F2  084D               	movf	main@ataiL+1,w
  1655  05F3  00F1               	movwf	___wmul@multiplier+1
  1656  05F4  084C               	movf	main@ataiL,w
  1657  05F5  00F0               	movwf	___wmul@multiplier
  1658  05F6  300A               	movlw	10
  1659  05F7  00F2               	movwf	___wmul@multiplicand
  1660  05F8  3000               	movlw	0
  1661  05F9  00F3               	movwf	___wmul@multiplicand+1
  1662  05FA  318E  2679  3184   	fcall	___wmul
  1663  05FD  0020               	movlb	0	; select bank0
  1664  05FE  084E               	movf	main@ataiR,w
  1665  05FF  0770               	addwf	?___wmul,w
  1666  0600  00D2               	movwf	main@ans
  1667  0601  084F               	movf	main@ataiR+1,w
  1668  0602  3D71               	addwfc	?___wmul+1,w
  1669  0603  00D3               	movwf	main@ans+1
  1670  0604                     l2811:
  1671                           
  1672                           ;Q5.c: 639:             hen7(ans,10);
  1673  0604  0853               	movf	main@ans+1,w
  1674  0605  00A5               	movwf	hen7@value+1
  1675  0606  0852               	movf	main@ans,w
  1676  0607  00A4               	movwf	hen7@value
  1677  0608  300A               	movlw	10
  1678  0609  00A6               	movwf	hen7@ns1
  1679  060A  3000               	movlw	0
  1680  060B  00A7               	movwf	hen7@ns1+1
  1681  060C  3182  22E0  3184   	fcall	_hen7
  1682  060F                     l2813:
  1683                           
  1684                           ;Q5.c: 640:             if(ans/10 > 1){
  1685  060F  300A               	movlw	10
  1686  0610  00F6               	movwf	___awdiv@divisor
  1687  0611  3000               	movlw	0
  1688  0612  00F7               	movwf	___awdiv@divisor+1
  1689  0613  0020               	movlb	0	; select bank0
  1690  0614  0853               	movf	main@ans+1,w
  1691  0615  00F9               	movwf	___awdiv@dividend+1
  1692  0616  0852               	movf	main@ans,w
  1693  0617  00F8               	movwf	___awdiv@dividend
  1694  0618  3180  2093  3184   	fcall	___awdiv
  1695  061B  0877               	movf	?___awdiv+1,w
  1696  061C  3A80               	xorlw	128
  1697  061D  00FC               	movwf	??_main
  1698  061E  3080               	movlw	128
  1699  061F  027C               	subwf	??_main,w
  1700  0620  1D03               	skipz
  1701  0621  2E24               	goto	u3105
  1702  0622  3002               	movlw	2
  1703  0623  0276               	subwf	?___awdiv,w
  1704  0624                     u3105:
  1705  0624  1C03               	skipc
  1706  0625  2E27               	goto	u3101
  1707  0626  2E28               	goto	u3100
  1708  0627                     u3101:
  1709  0627  2E2E               	goto	l2817
  1710  0628                     u3100:
  1711  0628                     l2815:
  1712                           
  1713                           ;Q5.c: 641:                 segL = code10;
  1714  0628  0020               	movlb	0	; select bank0
  1715  0629  085F               	movf	_code10+1,w
  1716  062A  00D5               	movwf	main@segL+1
  1717  062B  085E               	movf	_code10,w
  1718  062C  00D4               	movwf	main@segL
  1719                           
  1720                           ;Q5.c: 642:             }else{
  1721  062D  2E31               	goto	l2819
  1722  062E                     l2817:
  1723                           
  1724                           ;Q5.c: 643:                 segL = 0;
  1725  062E  0020               	movlb	0	; select bank0
  1726  062F  01D4               	clrf	main@segL
  1727  0630  01D5               	clrf	main@segL+1
  1728  0631                     l2819:
  1729                           
  1730                           ;Q5.c: 646:             segR = code1;
  1731  0631  085D               	movf	_code1+1,w
  1732  0632  00D7               	movwf	main@segR+1
  1733  0633  085C               	movf	_code1,w
  1734  0634  00D6               	movwf	main@segR
  1735  0635                     l2821:
  1736                           
  1737                           ;Q5.c: 649:             if(zyoutai == 0){
  1738  0635  0858               	movf	main@zyoutai,w
  1739  0636  0459               	iorwf	main@zyoutai+1,w
  1740  0637  1D03               	btfss	3,2
  1741  0638  2E3A               	goto	u3111
  1742  0639  2E3B               	goto	u3110
  1743  063A                     u3111:
  1744  063A  2E3F               	goto	l2825
  1745  063B                     u3110:
  1746  063B                     l2823:
  1747                           
  1748                           ;Q5.c: 650:                 zyoutai = 2;
  1749  063B  3002               	movlw	2
  1750  063C  00D8               	movwf	main@zyoutai
  1751  063D  3000               	movlw	0
  1752  063E  00D9               	movwf	main@zyoutai+1
  1753  063F                     l2825:
  1754                           
  1755                           ;Q5.c: 654:             if(ans%2 == 1 && zyoutai == 2){
  1756  063F  1C52               	btfss	main@ans,0
  1757  0640  2E42               	goto	u3121
  1758  0641  2E43               	goto	u3120
  1759  0642                     u3121:
  1760  0642  2E65               	goto	l2833
  1761  0643                     u3120:
  1762  0643                     l2827:
  1763  0643  3002               	movlw	2
  1764  0644  0658               	xorwf	main@zyoutai,w
  1765  0645  0459               	iorwf	main@zyoutai+1,w
  1766  0646  1D03               	btfss	3,2
  1767  0647  2E49               	goto	u3131
  1768  0648  2E4A               	goto	u3130
  1769  0649                     u3131:
  1770  0649  2E65               	goto	l2833
  1771  064A                     u3130:
  1772  064A                     l2829:
  1773                           
  1774                           ;Q5.c: 655:                 zyoutai = 3;
  1775  064A  3003               	movlw	3
  1776  064B  00D8               	movwf	main@zyoutai
  1777  064C  3000               	movlw	0
  1778  064D  00D9               	movwf	main@zyoutai+1
  1779  064E                     l2831:
  1780                           
  1781                           ;Q5.c: 657:                 motor(360,segL,segR,1,1);
  1782  064E  3068               	movlw	104
  1783  064F  00A8               	movwf	motor@kakudo
  1784  0650  3001               	movlw	1
  1785  0651  00A9               	movwf	motor@kakudo+1
  1786  0652  0855               	movf	main@segL+1,w
  1787  0653  00AB               	movwf	motor@dig1data+1
  1788  0654  0854               	movf	main@segL,w
  1789  0655  00AA               	movwf	motor@dig1data
  1790  0656  0857               	movf	main@segR+1,w
  1791  0657  00AD               	movwf	motor@dig2data+1
  1792  0658  0856               	movf	main@segR,w
  1793  0659  00AC               	movwf	motor@dig2data
  1794  065A  3001               	movlw	1
  1795  065B  00AE               	movwf	motor@smdata
  1796  065C  3000               	movlw	0
  1797  065D  00AF               	movwf	motor@smdata+1
  1798  065E  3001               	movlw	1
  1799  065F  00B0               	movwf	motor@tr
  1800  0660  3000               	movlw	0
  1801  0661  00B1               	movwf	motor@tr+1
  1802  0662  318E  26D8  3184   	fcall	_motor
  1803  0665                     l2833:
  1804                           
  1805                           ;Q5.c: 662:             if(ans%2 == 0 && zyoutai == 2){
  1806  0665  0020               	movlb	0	; select bank0
  1807  0666  1852               	btfsc	main@ans,0
  1808  0667  2E69               	goto	u3141
  1809  0668  2E6A               	goto	u3140
  1810  0669                     u3141:
  1811  0669  2E8C               	goto	l2841
  1812  066A                     u3140:
  1813  066A                     l2835:
  1814  066A  3002               	movlw	2
  1815  066B  0658               	xorwf	main@zyoutai,w
  1816  066C  0459               	iorwf	main@zyoutai+1,w
  1817  066D  1D03               	btfss	3,2
  1818  066E  2E70               	goto	u3151
  1819  066F  2E71               	goto	u3150
  1820  0670                     u3151:
  1821  0670  2E8C               	goto	l2841
  1822  0671                     u3150:
  1823  0671                     l2837:
  1824                           
  1825                           ;Q5.c: 663:                 zyoutai = 3;
  1826  0671  3003               	movlw	3
  1827  0672  00D8               	movwf	main@zyoutai
  1828  0673  3000               	movlw	0
  1829  0674  00D9               	movwf	main@zyoutai+1
  1830  0675                     l2839:
  1831                           
  1832                           ;Q5.c: 665:                 motor(720,segL,segR,2,1);
  1833  0675  30D0               	movlw	208
  1834  0676  00A8               	movwf	motor@kakudo
  1835  0677  3002               	movlw	2
  1836  0678  00A9               	movwf	motor@kakudo+1
  1837  0679  0855               	movf	main@segL+1,w
  1838  067A  00AB               	movwf	motor@dig1data+1
  1839  067B  0854               	movf	main@segL,w
  1840  067C  00AA               	movwf	motor@dig1data
  1841  067D  0857               	movf	main@segR+1,w
  1842  067E  00AD               	movwf	motor@dig2data+1
  1843  067F  0856               	movf	main@segR,w
  1844  0680  00AC               	movwf	motor@dig2data
  1845  0681  3002               	movlw	2
  1846  0682  00AE               	movwf	motor@smdata
  1847  0683  3000               	movlw	0
  1848  0684  00AF               	movwf	motor@smdata+1
  1849  0685  3001               	movlw	1
  1850  0686  00B0               	movwf	motor@tr
  1851  0687  3000               	movlw	0
  1852  0688  00B1               	movwf	motor@tr+1
  1853  0689  318E  26D8  3184   	fcall	_motor
  1854  068C                     l2841:
  1855                           
  1856                           ;Q5.c: 670:             if(ans%2 == 0 && zyoutai == 2){
  1857  068C  0020               	movlb	0	; select bank0
  1858  068D  1852               	btfsc	main@ans,0
  1859  068E  2E90               	goto	u3161
  1860  068F  2E91               	goto	u3160
  1861  0690                     u3161:
  1862  0690  2ECB               	goto	l2851
  1863  0691                     u3160:
  1864  0691                     l2843:
  1865  0691  3002               	movlw	2
  1866  0692  0658               	xorwf	main@zyoutai,w
  1867  0693  0459               	iorwf	main@zyoutai+1,w
  1868  0694  1D03               	btfss	3,2
  1869  0695  2E97               	goto	u3171
  1870  0696  2E98               	goto	u3170
  1871  0697                     u3171:
  1872  0697  2ECB               	goto	l2851
  1873  0698                     u3170:
  1874  0698                     l2845:
  1875                           
  1876                           ;Q5.c: 671:                 zyoutai = 3;
  1877  0698  3003               	movlw	3
  1878  0699  00D8               	movwf	main@zyoutai
  1879  069A  3000               	movlw	0
  1880  069B  00D9               	movwf	main@zyoutai+1
  1881  069C                     l2847:
  1882                           
  1883                           ;Q5.c: 673:                 motor(360,segL,segR,1,1);
  1884  069C  3068               	movlw	104
  1885  069D  00A8               	movwf	motor@kakudo
  1886  069E  3001               	movlw	1
  1887  069F  00A9               	movwf	motor@kakudo+1
  1888  06A0  0855               	movf	main@segL+1,w
  1889  06A1  00AB               	movwf	motor@dig1data+1
  1890  06A2  0854               	movf	main@segL,w
  1891  06A3  00AA               	movwf	motor@dig1data
  1892  06A4  0857               	movf	main@segR+1,w
  1893  06A5  00AD               	movwf	motor@dig2data+1
  1894  06A6  0856               	movf	main@segR,w
  1895  06A7  00AC               	movwf	motor@dig2data
  1896  06A8  3001               	movlw	1
  1897  06A9  00AE               	movwf	motor@smdata
  1898  06AA  3000               	movlw	0
  1899  06AB  00AF               	movwf	motor@smdata+1
  1900  06AC  3001               	movlw	1
  1901  06AD  00B0               	movwf	motor@tr
  1902  06AE  3000               	movlw	0
  1903  06AF  00B1               	movwf	motor@tr+1
  1904  06B0  318E  26D8  3184   	fcall	_motor
  1905  06B3                     l2849:
  1906                           
  1907                           ;Q5.c: 674:                 motor(360,segL,segR,2,1);
  1908  06B3  3068               	movlw	104
  1909  06B4  0020               	movlb	0	; select bank0
  1910  06B5  00A8               	movwf	motor@kakudo
  1911  06B6  3001               	movlw	1
  1912  06B7  00A9               	movwf	motor@kakudo+1
  1913  06B8  0855               	movf	main@segL+1,w
  1914  06B9  00AB               	movwf	motor@dig1data+1
  1915  06BA  0854               	movf	main@segL,w
  1916  06BB  00AA               	movwf	motor@dig1data
  1917  06BC  0857               	movf	main@segR+1,w
  1918  06BD  00AD               	movwf	motor@dig2data+1
  1919  06BE  0856               	movf	main@segR,w
  1920  06BF  00AC               	movwf	motor@dig2data
  1921  06C0  3002               	movlw	2
  1922  06C1  00AE               	movwf	motor@smdata
  1923  06C2  3000               	movlw	0
  1924  06C3  00AF               	movwf	motor@smdata+1
  1925  06C4  3001               	movlw	1
  1926  06C5  00B0               	movwf	motor@tr
  1927  06C6  3000               	movlw	0
  1928  06C7  00B1               	movwf	motor@tr+1
  1929  06C8  318E  26D8  3184   	fcall	_motor
  1930  06CB                     l2851:
  1931                           
  1932                           ;Q5.c: 682:         tact(2);
  1933  06CB  3002               	movlw	2
  1934  06CC  00F8               	movwf	tact@mode
  1935  06CD  3000               	movlw	0
  1936  06CE  00F9               	movwf	tact@mode+1
  1937  06CF  318F  27B5  3184   	fcall	_tact
  1938  06D2                     l2853:
  1939                           
  1940                           ;Q5.c: 684:         if(RA0 ==1 && RA1 == 1 && ((flag_sw3==0)&&(flag_P==1)) && segR != 0x
      +                          40 && segL != 0x40 && zyoutai == 3){
  1941  06D2  0020               	movlb	0	; select bank0
  1942  06D3  1C0C               	btfss	12,0	;volatile
  1943  06D4  2ED6               	goto	u3181
  1944  06D5  2ED7               	goto	u3180
  1945  06D6                     u3181:
  1946  06D6  2F08               	goto	l2869
  1947  06D7                     u3180:
  1948  06D7                     l2855:
  1949  06D7  1C8C               	btfss	12,1	;volatile
  1950  06D8  2EDA               	goto	u3191
  1951  06D9  2EDB               	goto	u3190
  1952  06DA                     u3191:
  1953  06DA  2F08               	goto	l2869
  1954  06DB                     u3190:
  1955  06DB                     l2857:
  1956  06DB  086E               	movf	_flag_sw3,w
  1957  06DC  046F               	iorwf	_flag_sw3+1,w
  1958  06DD  1D03               	btfss	3,2
  1959  06DE  2EE0               	goto	u3201
  1960  06DF  2EE1               	goto	u3200
  1961  06E0                     u3201:
  1962  06E0  2F08               	goto	l2869
  1963  06E1                     u3200:
  1964  06E1                     l2859:
  1965  06E1  036A               	decf	_flag_P,w
  1966  06E2  046B               	iorwf	_flag_P+1,w
  1967  06E3  1D03               	btfss	3,2
  1968  06E4  2EE6               	goto	u3211
  1969  06E5  2EE7               	goto	u3210
  1970  06E6                     u3211:
  1971  06E6  2F08               	goto	l2869
  1972  06E7                     u3210:
  1973  06E7                     l2861:
  1974  06E7  3040               	movlw	64
  1975  06E8  0656               	xorwf	main@segR,w
  1976  06E9  0457               	iorwf	main@segR+1,w
  1977  06EA  1903               	btfsc	3,2
  1978  06EB  2EED               	goto	u3221
  1979  06EC  2EEE               	goto	u3220
  1980  06ED                     u3221:
  1981  06ED  2F08               	goto	l2869
  1982  06EE                     u3220:
  1983  06EE                     l2863:
  1984  06EE  3040               	movlw	64
  1985  06EF  0654               	xorwf	main@segL,w
  1986  06F0  0455               	iorwf	main@segL+1,w
  1987  06F1  1903               	btfsc	3,2
  1988  06F2  2EF4               	goto	u3231
  1989  06F3  2EF5               	goto	u3230
  1990  06F4                     u3231:
  1991  06F4  2F08               	goto	l2869
  1992  06F5                     u3230:
  1993  06F5                     l2865:
  1994  06F5  3003               	movlw	3
  1995  06F6  0658               	xorwf	main@zyoutai,w
  1996  06F7  0459               	iorwf	main@zyoutai+1,w
  1997  06F8  1D03               	btfss	3,2
  1998  06F9  2EFB               	goto	u3241
  1999  06FA  2EFC               	goto	u3240
  2000  06FB                     u3241:
  2001  06FB  2F08               	goto	l2869
  2002  06FC                     u3240:
  2003  06FC                     l2867:
  2004                           
  2005                           ;Q5.c: 685:             zyoutai = 0;
  2006  06FC  01D8               	clrf	main@zyoutai
  2007  06FD  01D9               	clrf	main@zyoutai+1
  2008                           
  2009                           ;Q5.c: 687:             segR = 0;
  2010  06FE  01D6               	clrf	main@segR
  2011  06FF  01D7               	clrf	main@segR+1
  2012                           
  2013                           ;Q5.c: 688:             segL = 0;
  2014  0700  01D4               	clrf	main@segL
  2015  0701  01D5               	clrf	main@segL+1
  2016                           
  2017                           ;Q5.c: 690:             ataiR = 0;
  2018  0702  01CE               	clrf	main@ataiR
  2019  0703  01CF               	clrf	main@ataiR+1
  2020                           
  2021                           ;Q5.c: 691:             ataiL = 0;
  2022  0704  01CC               	clrf	main@ataiL
  2023  0705  01CD               	clrf	main@ataiL+1
  2024                           
  2025                           ;Q5.c: 693:             ans = 0;
  2026  0706  01D2               	clrf	main@ans
  2027  0707  01D3               	clrf	main@ans+1
  2028  0708                     l2869:
  2029                           
  2030                           ;Q5.c: 698:         if(RA0 == 1 && RA1 == 0){
  2031  0708  1C0C               	btfss	12,0	;volatile
  2032  0709  2F0B               	goto	u3251
  2033  070A  2F0C               	goto	u3250
  2034  070B                     u3251:
  2035  070B  2F8F               	goto	l309
  2036  070C                     u3250:
  2037  070C                     l2871:
  2038  070C  188C               	btfsc	12,1	;volatile
  2039  070D  2F0F               	goto	u3261
  2040  070E  2F10               	goto	u3260
  2041  070F                     u3261:
  2042  070F  2F8F               	goto	l309
  2043  0710                     u3260:
  2044  0710                     l2873:
  2045                           
  2046                           ;Q5.c: 700:             segL = segR = (0x04|0x10|0x40);
  2047  0710  3054               	movlw	84
  2048  0711  00D6               	movwf	main@segR
  2049  0712  3000               	movlw	0
  2050  0713  00D7               	movwf	main@segR+1
  2051  0714  0857               	movf	main@segR+1,w
  2052  0715  00D5               	movwf	main@segL+1
  2053  0716  0856               	movf	main@segR,w
  2054  0717  00D4               	movwf	main@segL
  2055  0718                     l2875:
  2056                           
  2057                           ;Q5.c: 703:             tact(2);
  2058  0718  3002               	movlw	2
  2059  0719  00F8               	movwf	tact@mode
  2060  071A  3000               	movlw	0
  2061  071B  00F9               	movwf	tact@mode+1
  2062  071C  318F  27B5  3184   	fcall	_tact
  2063  071F                     l2877:
  2064                           
  2065                           ;Q5.c: 705:             if(((flag_sw3==0)&&(flag_P==1))){
  2066  071F  0020               	movlb	0	; select bank0
  2067  0720  086E               	movf	_flag_sw3,w
  2068  0721  046F               	iorwf	_flag_sw3+1,w
  2069  0722  1D03               	btfss	3,2
  2070  0723  2F25               	goto	u3271
  2071  0724  2F26               	goto	u3270
  2072  0725                     u3271:
  2073  0725  2F30               	goto	l310
  2074  0726                     u3270:
  2075  0726                     l2879:
  2076  0726  036A               	decf	_flag_P,w
  2077  0727  046B               	iorwf	_flag_P+1,w
  2078  0728  1D03               	btfss	3,2
  2079  0729  2F2B               	goto	u3281
  2080  072A  2F2C               	goto	u3280
  2081  072B                     u3281:
  2082  072B  2F30               	goto	l310
  2083  072C                     u3280:
  2084  072C                     l2881:
  2085                           
  2086                           ;Q5.c: 706:                 k++;
  2087  072C  3001               	movlw	1
  2088  072D  07C6               	addwf	main@k,f
  2089  072E  3000               	movlw	0
  2090  072F  3DC7               	addwfc	main@k+1,f
  2091  0730                     l310:	
  2092                           ;Q5.c: 707:             }
  2093                           
  2094                           
  2095                           ;Q5.c: 708:             if(k >= 2 && zyoutai == 0){
  2096  0730  0847               	movf	main@k+1,w
  2097  0731  3A80               	xorlw	128
  2098  0732  00FC               	movwf	??_main
  2099  0733  3080               	movlw	128
  2100  0734  027C               	subwf	??_main,w
  2101  0735  1D03               	skipz
  2102  0736  2F39               	goto	u3295
  2103  0737  3002               	movlw	2
  2104  0738  0246               	subwf	main@k,w
  2105  0739                     u3295:
  2106  0739  1C03               	skipc
  2107  073A  2F3C               	goto	u3291
  2108  073B  2F3D               	goto	u3290
  2109  073C                     u3291:
  2110  073C  2F8F               	goto	l309
  2111  073D                     u3290:
  2112  073D                     l2883:
  2113  073D  0020               	movlb	0	; select bank0
  2114  073E  0858               	movf	main@zyoutai,w
  2115  073F  0459               	iorwf	main@zyoutai+1,w
  2116  0740  1D03               	btfss	3,2
  2117  0741  2F43               	goto	u3301
  2118  0742  2F44               	goto	u3300
  2119  0743                     u3301:
  2120  0743  2F8F               	goto	l309
  2121  0744                     u3300:
  2122  0744                     l2885:
  2123                           
  2124                           ;Q5.c: 709:                 for(i = 0; i<=15; i++){
  2125  0744  01D0               	clrf	main@i
  2126  0745  01D1               	clrf	main@i+1
  2127  0746                     l2891:
  2128                           
  2129                           ;Q5.c: 710:                     hen7(i,10);
  2130  0746  0020               	movlb	0	; select bank0
  2131  0747  0851               	movf	main@i+1,w
  2132  0748  00A5               	movwf	hen7@value+1
  2133  0749  0850               	movf	main@i,w
  2134  074A  00A4               	movwf	hen7@value
  2135  074B  300A               	movlw	10
  2136  074C  00A6               	movwf	hen7@ns1
  2137  074D  3000               	movlw	0
  2138  074E  00A7               	movwf	hen7@ns1+1
  2139  074F  3182  22E0  3184   	fcall	_hen7
  2140  0752                     l2893:
  2141                           
  2142                           ;Q5.c: 712:                     segL2 = code10;
  2143  0752  0020               	movlb	0	; select bank0
  2144  0753  085F               	movf	_code10+1,w
  2145  0754  00C9               	movwf	main@segL2+1
  2146  0755  085E               	movf	_code10,w
  2147  0756  00C8               	movwf	main@segL2
  2148  0757                     l2895:
  2149                           
  2150                           ;Q5.c: 713:                     segR2 = code1;
  2151  0757  085D               	movf	_code1+1,w
  2152  0758  00CB               	movwf	main@segR2+1
  2153  0759  085C               	movf	_code1,w
  2154  075A  00CA               	movwf	main@segR2
  2155  075B                     l2897:
  2156                           
  2157                           ;Q5.c: 715:                     time = waitSEGStop(segL2,segR2,1000);
  2158  075B  0849               	movf	main@segL2+1,w
  2159  075C  00A9               	movwf	waitSEGStop@seg1+1
  2160  075D  0848               	movf	main@segL2,w
  2161  075E  00A8               	movwf	waitSEGStop@seg1
  2162  075F  084B               	movf	main@segR2+1,w
  2163  0760  00AB               	movwf	waitSEGStop@seg2+1
  2164  0761  084A               	movf	main@segR2,w
  2165  0762  00AA               	movwf	waitSEGStop@seg2
  2166  0763  30E8               	movlw	232
  2167  0764  00AC               	movwf	waitSEGStop@wt
  2168  0765  3003               	movlw	3
  2169  0766  00AD               	movwf	waitSEGStop@wt+1
  2170  0767  3180  20F3  3184   	fcall	_waitSEGStop
  2171  076A  0020               	movlb	0	; select bank0
  2172  076B  0829               	movf	?_waitSEGStop+1,w
  2173  076C  00C3               	movwf	main@time+1
  2174  076D  0828               	movf	?_waitSEGStop,w
  2175  076E  00C2               	movwf	main@time
  2176  076F                     l2899:
  2177                           
  2178                           ;Q5.c: 717:                     if (time == 1){
  2179  076F  0342               	decf	main@time,w
  2180  0770  0443               	iorwf	main@time+1,w
  2181  0771  1D03               	btfss	3,2
  2182  0772  2F74               	goto	u3311
  2183  0773  2F75               	goto	u3310
  2184  0774                     u3311:
  2185  0774  2F7E               	goto	l2903
  2186  0775                     u3310:
  2187  0775                     l2901:
  2188                           
  2189                           ;Q5.c: 718:                         ans2 = i;
  2190  0775  0851               	movf	main@i+1,w
  2191  0776  00C5               	movwf	main@ans2+1
  2192  0777  0850               	movf	main@i,w
  2193  0778  00C4               	movwf	main@ans2
  2194                           
  2195                           ;Q5.c: 719:                         zyoutai = 11;
  2196  0779  300B               	movlw	11
  2197  077A  00D8               	movwf	main@zyoutai
  2198  077B  3000               	movlw	0
  2199  077C  00D9               	movwf	main@zyoutai+1
  2200                           
  2201                           ;Q5.c: 720:                         break;
  2202  077D  2F8F               	goto	l309
  2203  077E                     l2903:
  2204                           
  2205                           ;Q5.c: 724:                 }
  2206  077E  3001               	movlw	1
  2207  077F  07D0               	addwf	main@i,f
  2208  0780  3000               	movlw	0
  2209  0781  3DD1               	addwfc	main@i+1,f
  2210  0782  0851               	movf	main@i+1,w
  2211  0783  3A80               	xorlw	128
  2212  0784  00FC               	movwf	??_main
  2213  0785  3080               	movlw	128
  2214  0786  027C               	subwf	??_main,w
  2215  0787  1D03               	skipz
  2216  0788  2F8B               	goto	u3325
  2217  0789  3010               	movlw	16
  2218  078A  0250               	subwf	main@i,w
  2219  078B                     u3325:
  2220  078B  1C03               	skipc
  2221  078C  2F8E               	goto	u3321
  2222  078D  2F8F               	goto	u3320
  2223  078E                     u3321:
  2224  078E  2F46               	goto	l2891
  2225  078F                     u3320:
  2226  078F                     l309:	
  2227                           ;Q5.c: 726:         }
  2228                           
  2229                           
  2230                           ;Q5.c: 729:         if(RA0 == 0 && RA1 == 0 && zyoutai == 11){
  2231  078F  0020               	movlb	0	; select bank0
  2232  0790  180C               	btfsc	12,0	;volatile
  2233  0791  2F93               	goto	u3331
  2234  0792  2F94               	goto	u3330
  2235  0793                     u3331:
  2236  0793  2FA3               	goto	l2911
  2237  0794                     u3330:
  2238  0794                     l2905:
  2239  0794  188C               	btfsc	12,1	;volatile
  2240  0795  2F97               	goto	u3341
  2241  0796  2F98               	goto	u3340
  2242  0797                     u3341:
  2243  0797  2FA3               	goto	l2911
  2244  0798                     u3340:
  2245  0798                     l2907:
  2246  0798  300B               	movlw	11
  2247  0799  0658               	xorwf	main@zyoutai,w
  2248  079A  0459               	iorwf	main@zyoutai+1,w
  2249  079B  1D03               	btfss	3,2
  2250  079C  2F9E               	goto	u3351
  2251  079D  2F9F               	goto	u3350
  2252  079E                     u3351:
  2253  079E  2FA3               	goto	l2911
  2254  079F                     u3350:
  2255  079F                     l2909:
  2256                           
  2257                           ;Q5.c: 730:             zyoutai = 12;
  2258  079F  300C               	movlw	12
  2259  07A0  00D8               	movwf	main@zyoutai
  2260  07A1  3000               	movlw	0
  2261  07A2  00D9               	movwf	main@zyoutai+1
  2262  07A3                     l2911:
  2263                           
  2264                           ;Q5.c: 734:         if(RA0 == 1 && RA1 == 0 && zyoutai == 12){
  2265  07A3  1C0C               	btfss	12,0	;volatile
  2266  07A4  2FA6               	goto	u3361
  2267  07A5  2FA7               	goto	u3360
  2268  07A6                     u3361:
  2269  07A6  2CFD               	goto	l292
  2270  07A7                     u3360:
  2271  07A7                     l2913:
  2272  07A7  188C               	btfsc	12,1	;volatile
  2273  07A8  2FAA               	goto	u3371
  2274  07A9  2FAB               	goto	u3370
  2275  07AA                     u3371:
  2276  07AA  2CFD               	goto	l292
  2277  07AB                     u3370:
  2278  07AB                     l2915:
  2279  07AB  300C               	movlw	12
  2280  07AC  0658               	xorwf	main@zyoutai,w
  2281  07AD  0459               	iorwf	main@zyoutai+1,w
  2282  07AE  1D03               	btfss	3,2
  2283  07AF  2FB1               	goto	u3381
  2284  07B0  2FB2               	goto	u3380
  2285  07B1                     u3381:
  2286  07B1  2CFD               	goto	l292
  2287  07B2                     u3380:
  2288  07B2                     l2917:
  2289                           
  2290                           ;Q5.c: 735:             hen7(ans2,16 );
  2291  07B2  0845               	movf	main@ans2+1,w
  2292  07B3  00A5               	movwf	hen7@value+1
  2293  07B4  0844               	movf	main@ans2,w
  2294  07B5  00A4               	movwf	hen7@value
  2295  07B6  3010               	movlw	16
  2296  07B7  00A6               	movwf	hen7@ns1
  2297  07B8  3000               	movlw	0
  2298  07B9  00A7               	movwf	hen7@ns1+1
  2299  07BA  3182  22E0  3184   	fcall	_hen7
  2300  07BD                     l2919:
  2301                           
  2302                           ;Q5.c: 736:             segL2 = (0x01|0x02|0x04|0x08|0x10|0x20);
  2303  07BD  303F               	movlw	63
  2304  07BE  0020               	movlb	0	; select bank0
  2305  07BF  00C8               	movwf	main@segL2
  2306  07C0  3000               	movlw	0
  2307  07C1  00C9               	movwf	main@segL2+1
  2308  07C2                     l2921:
  2309                           
  2310                           ;Q5.c: 737:             segR2 = code1;
  2311  07C2  085D               	movf	_code1+1,w
  2312  07C3  00CB               	movwf	main@segR2+1
  2313  07C4  085C               	movf	_code1,w
  2314  07C5  00CA               	movwf	main@segR2
  2315  07C6  2CFD               	goto	l292
  2316  07C7  3180  2802         	ljmp	start
  2317  07C9                     __end_of_main:
  2318                           
  2319                           	psect	text1
  2320  0E5D                     __ptext1:	
  2321 ;; *************** function _zenoff *****************
  2322 ;; Defined at:
  2323 ;;		line 195 in file "Q5.c"
  2324 ;; Parameters:    Size  Location     Type
  2325 ;;		None
  2326 ;; Auto vars:     Size  Location     Type
  2327 ;;		None
  2328 ;; Return value:  Size  Location     Type
  2329 ;;                  1    wreg      void 
  2330 ;; Registers used:
  2331 ;;		status,2
  2332 ;; Tracked objects:
  2333 ;;		On entry : 0/0
  2334 ;;		On exit  : 0/0
  2335 ;;		Unchanged: 0/0
  2336 ;; Data sizes:     COMMON   BANK0   BANK1   BANK2   BANK3   BANK4   BANK5   BANK6   BANK7   BANK8   BANK9  BANK10  BANK1
      +1  BANK12
  2337 ;;      Params:         0       0       0       0       0       0       0       0       0       0       0       0       
      +0       0
  2338 ;;      Locals:         0       0       0       0       0       0       0       0       0       0       0       0       
      +0       0
  2339 ;;      Temps:          0       0       0       0       0       0       0       0       0       0       0       0       
      +0       0
  2340 ;;      Totals:         0       0       0       0       0       0       0       0       0       0       0       0       
      +0       0
  2341 ;;Total ram usage:        0 bytes
  2342 ;; Hardware stack levels used:    1
  2343 ;; This function calls:
  2344 ;;		Nothing
  2345 ;; This function is called by:
  2346 ;;		_main
  2347 ;; This function uses a non-reentrant model
  2348 ;;
  2349                           
  2350                           
  2351                           ;psect for function _zenoff
  2352  0E5D                     _zenoff:
  2353  0E5D                     l2357:	
  2354                           ;incstack = 0
  2355                           ; Regs used in _zenoff: [status,2]
  2356                           
  2357                           
  2358                           ;Q5.c: 197:     RC0=1;
  2359  0E5D  0020               	movlb	0	; select bank0
  2360  0E5E  140E               	bsf	14,0	;volatile
  2361                           
  2362                           ;Q5.c: 198:     RC1=1;
  2363  0E5F  148E               	bsf	14,1	;volatile
  2364                           
  2365                           ;Q5.c: 199:     RC2=1;
  2366  0E60  150E               	bsf	14,2	;volatile
  2367  0E61                     l2359:
  2368                           
  2369                           ;Q5.c: 200:     PORTB=0x00;
  2370  0E61  018D               	clrf	13	;volatile
  2371  0E62                     l2361:
  2372                           
  2373                           ;Q5.c: 201:     RC7=0;RC7=1;RC7=0;
  2374  0E62  138E               	bcf	14,7	;volatile
  2375  0E63                     l2363:
  2376  0E63  178E               	bsf	14,7	;volatile
  2377  0E64                     l2365:
  2378  0E64  138E               	bcf	14,7	;volatile
  2379  0E65                     l108:
  2380  0E65  0008               	return
  2381  0E66                     __end_of_zenoff:
  2382                           
  2383                           	psect	text2
  2384  00F3                     __ptext2:	
  2385 ;; *************** function _waitSEGStop *****************
  2386 ;; Defined at:
  2387 ;;		line 464 in file "Q5.c"
  2388 ;; Parameters:    Size  Location     Type
  2389 ;;  seg1            2    8[BANK0 ] unsigned short 
  2390 ;;  seg2            2   10[BANK0 ] unsigned short 
  2391 ;;  wt              2   12[BANK0 ] unsigned short 
  2392 ;; Auto vars:     Size  Location     Type
  2393 ;;  i               2   18[BANK0 ] unsigned int 
  2394 ;;  cpSW2           2   16[BANK0 ] int 
  2395 ;;  cpSW1           2   14[BANK0 ] int 
  2396 ;; Return value:  Size  Location     Type
  2397 ;;                  2    8[BANK0 ] int 
  2398 ;; Registers used:
  2399 ;;		wreg, fsr0l, fsr0h, status,2, status,0, pclath, cstack
  2400 ;; Tracked objects:
  2401 ;;		On entry : 0/0
  2402 ;;		On exit  : 0/0
  2403 ;;		Unchanged: 0/0
  2404 ;; Data sizes:     COMMON   BANK0   BANK1   BANK2   BANK3   BANK4   BANK5   BANK6   BANK7   BANK8   BANK9  BANK10  BANK1
      +1  BANK12
  2405 ;;      Params:         0       6       0       0       0       0       0       0       0       0       0       0       
      +0       0
  2406 ;;      Locals:         0       6       0       0       0       0       0       0       0       0       0       0       
      +0       0
  2407 ;;      Temps:          2       0       0       0       0       0       0       0       0       0       0       0       
      +0       0
  2408 ;;      Totals:         2      12       0       0       0       0       0       0       0       0       0       0       
      +0       0
  2409 ;;Total ram usage:       14 bytes
  2410 ;; Hardware stack levels used:    1
  2411 ;; Hardware stack levels required when called:    2
  2412 ;; This function calls:
  2413 ;;		___lwdiv
  2414 ;;		_dynam
  2415 ;;		_tact
  2416 ;; This function is called by:
  2417 ;;		_main
  2418 ;; This function uses a non-reentrant model
  2419 ;;
  2420                           
  2421                           
  2422                           ;psect for function _waitSEGStop
  2423  00F3                     _waitSEGStop:
  2424  00F3                     l2529:	
  2425                           ;incstack = 0
  2426                           ; Regs used in _waitSEGStop: [wreg-fsr0h+status,2+status,0+pclath+cstack]
  2427                           
  2428                           
  2429                           ;Q5.c: 464: int waitSEGStop(unsigned short seg1,unsigned short seg2,unsigned short wt);Q
      +                          5.c: 465: {;Q5.c: 467:     int cpSW1 = RA0;
  2430  00F3  1003               	clrc
  2431  00F4  0020               	movlb	0	; select bank0
  2432  00F5  180C               	btfsc	12,0	;volatile
  2433  00F6  1403               	setc
  2434  00F7  3000               	movlw	0
  2435  00F8  3D09               	addwfc	9,w
  2436  00F9  00FA               	movwf	??_waitSEGStop
  2437  00FA  01FB               	clrf	??_waitSEGStop+1
  2438  00FB  087A               	movf	??_waitSEGStop,w
  2439  00FC  00AE               	movwf	waitSEGStop@cpSW1
  2440  00FD  087B               	movf	??_waitSEGStop+1,w
  2441  00FE  00AF               	movwf	waitSEGStop@cpSW1+1
  2442                           
  2443                           ;Q5.c: 468:     int cpSW2 = RA1;
  2444  00FF  1003               	clrc
  2445  0100  188C               	btfsc	12,1	;volatile
  2446  0101  1403               	setc
  2447  0102  3000               	movlw	0
  2448  0103  3D09               	addwfc	9,w
  2449  0104  00FA               	movwf	??_waitSEGStop
  2450  0105  01FB               	clrf	??_waitSEGStop+1
  2451  0106  087A               	movf	??_waitSEGStop,w
  2452  0107  00B0               	movwf	waitSEGStop@cpSW2
  2453  0108  087B               	movf	??_waitSEGStop+1,w
  2454  0109  00B1               	movwf	waitSEGStop@cpSW2+1
  2455  010A                     l2531:
  2456                           
  2457                           ;Q5.c: 470:     wt = wt / 10;
  2458  010A  300A               	movlw	10
  2459  010B  00F0               	movwf	___lwdiv@divisor
  2460  010C  3000               	movlw	0
  2461  010D  00F1               	movwf	___lwdiv@divisor+1
  2462  010E  082D               	movf	waitSEGStop@wt+1,w
  2463  010F  00F3               	movwf	___lwdiv@dividend+1
  2464  0110  082C               	movf	waitSEGStop@wt,w
  2465  0111  00F2               	movwf	___lwdiv@dividend
  2466  0112  318E  26FC  3180   	fcall	___lwdiv
  2467  0115  0871               	movf	?___lwdiv+1,w
  2468  0116  0020               	movlb	0	; select bank0
  2469  0117  00AD               	movwf	waitSEGStop@wt+1
  2470  0118  0870               	movf	?___lwdiv,w
  2471  0119  00AC               	movwf	waitSEGStop@wt
  2472  011A                     l2533:
  2473                           
  2474                           ;Q5.c: 471:     unsigned int i;;Q5.c: 473:     for(i=wt;i>0;--i){
  2475  011A  082D               	movf	waitSEGStop@wt+1,w
  2476  011B  00B3               	movwf	waitSEGStop@i+1
  2477  011C  082C               	movf	waitSEGStop@wt,w
  2478  011D  00B2               	movwf	waitSEGStop@i
  2479  011E                     l2535:
  2480  011E  0832               	movf	waitSEGStop@i,w
  2481  011F  0433               	iorwf	waitSEGStop@i+1,w
  2482  0120  1D03               	btfss	3,2
  2483  0121  2923               	goto	u2531
  2484  0122  2924               	goto	u2530
  2485  0123                     u2531:
  2486  0123  2925               	goto	l2539
  2487  0124                     u2530:
  2488  0124  2975               	goto	l266
  2489  0125                     l2539:
  2490                           
  2491                           ;Q5.c: 474:         dynam(seg1,seg2,0,0);
  2492  0125  0829               	movf	waitSEGStop@seg1+1,w
  2493  0126  00F1               	movwf	dynam@dig1data+1
  2494  0127  0828               	movf	waitSEGStop@seg1,w
  2495  0128  00F0               	movwf	dynam@dig1data
  2496  0129  082B               	movf	waitSEGStop@seg2+1,w
  2497  012A  00F3               	movwf	dynam@dig2data+1
  2498  012B  082A               	movf	waitSEGStop@seg2,w
  2499  012C  00F2               	movwf	dynam@dig2data
  2500  012D  3000               	movlw	0
  2501  012E  00F4               	movwf	dynam@smdata
  2502  012F  00F5               	movwf	dynam@smdata+1
  2503  0130  3000               	movlw	0
  2504  0131  00F6               	movwf	dynam@tr
  2505  0132  00F7               	movwf	dynam@tr+1
  2506  0133  3181  2176  3180   	fcall	_dynam
  2507                           
  2508                           ;Q5.c: 476:         tact(0);
  2509  0136  3000               	movlw	0
  2510  0137  00F8               	movwf	tact@mode
  2511  0138  00F9               	movwf	tact@mode+1
  2512  0139  318F  27B5  3180   	fcall	_tact
  2513  013C                     l2541:
  2514                           
  2515                           ;Q5.c: 478:         if(cpSW1 != RA0 || cpSW2 != RA1 || ((flag_sw3==1)&&(flag_R==1))){
  2516  013C  1003               	clrc
  2517  013D  0020               	movlb	0	; select bank0
  2518  013E  180C               	btfsc	12,0	;volatile
  2519  013F  1403               	setc
  2520  0140  3000               	movlw	0
  2521  0141  3D09               	addwfc	9,w
  2522  0142  00FA               	movwf	??_waitSEGStop
  2523  0143  01FB               	clrf	??_waitSEGStop+1
  2524  0144  082F               	movf	waitSEGStop@cpSW1+1,w
  2525  0145  067B               	xorwf	??_waitSEGStop+1,w
  2526  0146  1D03               	skipz
  2527  0147  294A               	goto	u2545
  2528  0148  082E               	movf	waitSEGStop@cpSW1,w
  2529  0149  067A               	xorwf	??_waitSEGStop,w
  2530  014A                     u2545:
  2531  014A  1D03               	skipz
  2532  014B  294D               	goto	u2541
  2533  014C  294E               	goto	u2540
  2534  014D                     u2541:
  2535  014D  296B               	goto	l2549
  2536  014E                     u2540:
  2537  014E                     l2543:
  2538  014E  1003               	clrc
  2539  014F  188C               	btfsc	12,1	;volatile
  2540  0150  1403               	setc
  2541  0151  3000               	movlw	0
  2542  0152  3D09               	addwfc	9,w
  2543  0153  00FA               	movwf	??_waitSEGStop
  2544  0154  01FB               	clrf	??_waitSEGStop+1
  2545  0155  0831               	movf	waitSEGStop@cpSW2+1,w
  2546  0156  067B               	xorwf	??_waitSEGStop+1,w
  2547  0157  1D03               	skipz
  2548  0158  295B               	goto	u2555
  2549  0159  0830               	movf	waitSEGStop@cpSW2,w
  2550  015A  067A               	xorwf	??_waitSEGStop,w
  2551  015B                     u2555:
  2552  015B  1D03               	skipz
  2553  015C  295E               	goto	u2551
  2554  015D  295F               	goto	u2550
  2555  015E                     u2551:
  2556  015E  296B               	goto	l2549
  2557  015F                     u2550:
  2558  015F                     l2545:
  2559  015F  036E               	decf	_flag_sw3,w
  2560  0160  046F               	iorwf	_flag_sw3+1,w
  2561  0161  1D03               	btfss	3,2
  2562  0162  2964               	goto	u2561
  2563  0163  2965               	goto	u2560
  2564  0164                     u2561:
  2565  0164  2970               	goto	l2553
  2566  0165                     u2560:
  2567  0165                     l2547:
  2568  0165  036C               	decf	_flag_R,w
  2569  0166  046D               	iorwf	_flag_R+1,w
  2570  0167  1D03               	btfss	3,2
  2571  0168  296A               	goto	u2571
  2572  0169  296B               	goto	u2570
  2573  016A                     u2571:
  2574  016A  2970               	goto	l2553
  2575  016B                     u2570:
  2576  016B                     l2549:
  2577                           
  2578                           ;Q5.c: 479:             return 1;
  2579  016B  3001               	movlw	1
  2580  016C  00A8               	movwf	?_waitSEGStop
  2581  016D  3000               	movlw	0
  2582  016E  00A9               	movwf	?_waitSEGStop+1
  2583  016F  2975               	goto	l266
  2584  0170                     l2553:
  2585                           
  2586                           ;Q5.c: 481:     }
  2587  0170  3001               	movlw	1
  2588  0171  02B2               	subwf	waitSEGStop@i,f
  2589  0172  3000               	movlw	0
  2590  0173  3BB3               	subwfb	waitSEGStop@i+1,f
  2591  0174  291E               	goto	l2535
  2592  0175                     l266:
  2593  0175  0008               	return
  2594  0176                     __end_of_waitSEGStop:
  2595                           
  2596                           	psect	text3
  2597  0FB5                     __ptext3:	
  2598 ;; *************** function _tact *****************
  2599 ;; Defined at:
  2600 ;;		line 346 in file "Q5.c"
  2601 ;; Parameters:    Size  Location     Type
  2602 ;;  mode            2    8[COMMON] unsigned short 
  2603 ;; Auto vars:     Size  Location     Type
  2604 ;;		None
  2605 ;; Return value:  Size  Location     Type
  2606 ;;                  1    wreg      void 
  2607 ;; Registers used:
  2608 ;;		wreg, fsr0l, fsr0h, status,2, status,0, pclath, cstack
  2609 ;; Tracked objects:
  2610 ;;		On entry : 0/0
  2611 ;;		On exit  : 0/0
  2612 ;;		Unchanged: 0/0
  2613 ;; Data sizes:     COMMON   BANK0   BANK1   BANK2   BANK3   BANK4   BANK5   BANK6   BANK7   BANK8   BANK9  BANK10  BANK1
      +1  BANK12
  2614 ;;      Params:         2       0       0       0       0       0       0       0       0       0       0       0       
      +0       0
  2615 ;;      Locals:         0       0       0       0       0       0       0       0       0       0       0       0       
      +0       0
  2616 ;;      Temps:          0       0       0       0       0       0       0       0       0       0       0       0       
      +0       0
  2617 ;;      Totals:         2       0       0       0       0       0       0       0       0       0       0       0       
      +0       0
  2618 ;;Total ram usage:        2 bytes
  2619 ;; Hardware stack levels used:    1
  2620 ;; Hardware stack levels required when called:    1
  2621 ;; This function calls:
  2622 ;;		_tactsw
  2623 ;; This function is called by:
  2624 ;;		_waitSEGStop
  2625 ;;		_main
  2626 ;;		_kaisu
  2627 ;;		_motorStop
  2628 ;; This function uses a non-reentrant model
  2629 ;;
  2630                           
  2631                           
  2632                           ;psect for function _tact
  2633  0FB5                     _tact:
  2634  0FB5                     l2171:	
  2635                           ;incstack = 0
  2636                           ; Regs used in _tact: [wreg-fsr0h+status,2+status,0+pclath+cstack]
  2637                           
  2638                           
  2639                           ;Q5.c: 346: void tact(unsigned short mode);Q5.c: 347: {;Q5.c: 348:     switch(mode){
  2640  0FB5  2FEF               	goto	l2199
  2641  0FB6                     l2173:
  2642                           
  2643                           ;Q5.c: 350:                 tactsw();
  2644  0FB6  318F  2738  318F   	fcall	_tactsw
  2645  0FB9                     l2175:
  2646                           
  2647                           ;Q5.c: 351:                 if(flag_sw3==0)flag_R=1;
  2648  0FB9  0020               	movlb	0	; select bank0
  2649  0FBA  086E               	movf	_flag_sw3,w
  2650  0FBB  046F               	iorwf	_flag_sw3+1,w
  2651  0FBC  1D03               	btfss	3,2
  2652  0FBD  2FBF               	goto	u1961
  2653  0FBE  2FC0               	goto	u1960
  2654  0FBF                     u1961:
  2655  0FBF  2FFF               	goto	l208
  2656  0FC0                     u1960:
  2657  0FC0                     l2177:
  2658  0FC0  3001               	movlw	1
  2659  0FC1  00EC               	movwf	_flag_R
  2660  0FC2  3000               	movlw	0
  2661  0FC3  00ED               	movwf	_flag_R+1
  2662  0FC4  2FFF               	goto	l208
  2663  0FC5                     l2179:
  2664                           
  2665                           ;Q5.c: 354:                 tactsw();
  2666  0FC5  318F  2738  318F   	fcall	_tactsw
  2667  0FC8                     l2181:
  2668                           
  2669                           ;Q5.c: 355:                 if(flag_sw3==1)flag_P=1;
  2670  0FC8  0020               	movlb	0	; select bank0
  2671  0FC9  036E               	decf	_flag_sw3,w
  2672  0FCA  046F               	iorwf	_flag_sw3+1,w
  2673  0FCB  1D03               	btfss	3,2
  2674  0FCC  2FCE               	goto	u1971
  2675  0FCD  2FCF               	goto	u1970
  2676  0FCE                     u1971:
  2677  0FCE  2FFF               	goto	l208
  2678  0FCF                     u1970:
  2679  0FCF                     l2183:
  2680  0FCF  3001               	movlw	1
  2681  0FD0  00EA               	movwf	_flag_P
  2682  0FD1  3000               	movlw	0
  2683  0FD2  00EB               	movwf	_flag_P+1
  2684  0FD3  2FFF               	goto	l208
  2685  0FD4                     l2185:
  2686                           
  2687                           ;Q5.c: 358:                 tactsw();
  2688  0FD4  318F  2738  318F   	fcall	_tactsw
  2689  0FD7                     l2187:
  2690                           
  2691                           ;Q5.c: 359:                 if(flag_sw3==0)flag_R=1;
  2692  0FD7  0020               	movlb	0	; select bank0
  2693  0FD8  086E               	movf	_flag_sw3,w
  2694  0FD9  046F               	iorwf	_flag_sw3+1,w
  2695  0FDA  1D03               	btfss	3,2
  2696  0FDB  2FDD               	goto	u1981
  2697  0FDC  2FDE               	goto	u1980
  2698  0FDD                     u1981:
  2699  0FDD  2FE2               	goto	l2191
  2700  0FDE                     u1980:
  2701  0FDE                     l2189:
  2702  0FDE  3001               	movlw	1
  2703  0FDF  00EC               	movwf	_flag_R
  2704  0FE0  3000               	movlw	0
  2705  0FE1  00ED               	movwf	_flag_R+1
  2706  0FE2                     l2191:
  2707                           
  2708                           ;Q5.c: 360:                 if((flag_sw3==1)&&(flag_R==1))flag_P=1;
  2709  0FE2  036E               	decf	_flag_sw3,w
  2710  0FE3  046F               	iorwf	_flag_sw3+1,w
  2711  0FE4  1D03               	btfss	3,2
  2712  0FE5  2FE7               	goto	u1991
  2713  0FE6  2FE8               	goto	u1990
  2714  0FE7                     u1991:
  2715  0FE7  2FFF               	goto	l208
  2716  0FE8                     u1990:
  2717  0FE8                     l2193:
  2718  0FE8  036C               	decf	_flag_R,w
  2719  0FE9  046D               	iorwf	_flag_R+1,w
  2720  0FEA  1D03               	btfss	3,2
  2721  0FEB  2FED               	goto	u2001
  2722  0FEC  2FEE               	goto	u2000
  2723  0FED                     u2001:
  2724  0FED  2FFF               	goto	l208
  2725  0FEE                     u2000:
  2726  0FEE  2FCF               	goto	l2183
  2727  0FEF                     l2199:
  2728                           
  2729                           ; Switch on 2 bytes has been partitioned into a top level switch of size 1, and 1 sub-sw
      +                          itches
  2730                           ; Switch size 1, requested type "simple"
  2731                           ; Number of cases is 1, Range of values is 0 to 0
  2732                           ; switch strategies available:
  2733                           ; Name         Instructions Cycles
  2734                           ; simple_byte            4     3 (average)
  2735                           ; direct_byte            8     6 (fixed)
  2736                           ; jumptable            260     6 (fixed)
  2737                           ;	Chosen strategy is simple_byte
  2738  0FEF  0879               	movf	tact@mode+1,w
  2739  0FF0  3A00               	xorlw	0	; case 0
  2740  0FF1  1903               	skipnz
  2741  0FF2  2FF4               	goto	l3003
  2742  0FF3  2FFF               	goto	l208
  2743  0FF4                     l3003:
  2744                           
  2745                           ; Switch size 1, requested type "simple"
  2746                           ; Number of cases is 3, Range of values is 0 to 2
  2747                           ; switch strategies available:
  2748                           ; Name         Instructions Cycles
  2749                           ; simple_byte           10     6 (average)
  2750                           ; direct_byte           12     6 (fixed)
  2751                           ; jumptable            260     6 (fixed)
  2752                           ;	Chosen strategy is simple_byte
  2753  0FF4  0878               	movf	tact@mode,w
  2754  0FF5  3A00               	xorlw	0	; case 0
  2755  0FF6  1903               	skipnz
  2756  0FF7  2FB6               	goto	l2173
  2757  0FF8  3A01               	xorlw	1	; case 1
  2758  0FF9  1903               	skipnz
  2759  0FFA  2FC5               	goto	l2179
  2760  0FFB  3A03               	xorlw	3	; case 2
  2761  0FFC  1903               	skipnz
  2762  0FFD  2FD4               	goto	l2185
  2763  0FFE  2FFF               	goto	l208
  2764  0FFF                     l208:
  2765  0FFF  0008               	return
  2766  1000                     __end_of_tact:
  2767                           
  2768                           	psect	text4
  2769  0F38                     __ptext4:	
  2770 ;; *************** function _tactsw *****************
  2771 ;; Defined at:
  2772 ;;		line 331 in file "Q5.c"
  2773 ;; Parameters:    Size  Location     Type
  2774 ;;		None
  2775 ;; Auto vars:     Size  Location     Type
  2776 ;;  a               2    6[COMMON] unsigned short 
  2777 ;;  c               2    4[COMMON] unsigned short 
  2778 ;;  b               2    2[COMMON] unsigned short 
  2779 ;; Return value:  Size  Location     Type
  2780 ;;                  1    wreg      void 
  2781 ;; Registers used:
  2782 ;;		wreg, status,2, status,0
  2783 ;; Tracked objects:
  2784 ;;		On entry : 0/0
  2785 ;;		On exit  : 0/0
  2786 ;;		Unchanged: 0/0
  2787 ;; Data sizes:     COMMON   BANK0   BANK1   BANK2   BANK3   BANK4   BANK5   BANK6   BANK7   BANK8   BANK9  BANK10  BANK1
      +1  BANK12
  2788 ;;      Params:         0       0       0       0       0       0       0       0       0       0       0       0       
      +0       0
  2789 ;;      Locals:         6       0       0       0       0       0       0       0       0       0       0       0       
      +0       0
  2790 ;;      Temps:          2       0       0       0       0       0       0       0       0       0       0       0       
      +0       0
  2791 ;;      Totals:         8       0       0       0       0       0       0       0       0       0       0       0       
      +0       0
  2792 ;;Total ram usage:        8 bytes
  2793 ;; Hardware stack levels used:    1
  2794 ;; This function calls:
  2795 ;;		Nothing
  2796 ;; This function is called by:
  2797 ;;		_tact
  2798 ;; This function uses a non-reentrant model
  2799 ;;
  2800                           
  2801                           
  2802                           ;psect for function _tactsw
  2803  0F38                     _tactsw:
  2804  0F38                     l1997:	
  2805                           ;incstack = 0
  2806                           ; Regs used in _tactsw: [wreg+status,2+status,0]
  2807                           
  2808                           
  2809                           ;Q5.c: 333:     unsigned short a,b,c;;Q5.c: 334:     b=c=0;
  2810  0F38  01F4               	clrf	tactsw@c
  2811  0F39  01F5               	clrf	tactsw@c+1
  2812  0F3A  01F2               	clrf	tactsw@b
  2813  0F3B  01F3               	clrf	tactsw@b+1
  2814  0F3C                     l1999:
  2815                           
  2816                           ;Q5.c: 336:             a=RA2;
  2817  0F3C  1003               	clrc
  2818  0F3D  0020               	movlb	0	; select bank0
  2819  0F3E  190C               	btfsc	12,2	;volatile
  2820  0F3F  1403               	setc
  2821  0F40  3000               	movlw	0
  2822  0F41  3D09               	addwfc	9,w
  2823  0F42  00F0               	movwf	??_tactsw
  2824  0F43  01F1               	clrf	??_tactsw+1
  2825  0F44  0870               	movf	??_tactsw,w
  2826  0F45  00F6               	movwf	tactsw@a
  2827  0F46  0871               	movf	??_tactsw+1,w
  2828  0F47  00F7               	movwf	tactsw@a+1
  2829  0F48                     l2001:
  2830                           
  2831                           ;Q5.c: 337:             if(b==a)++c;
  2832  0F48  0877               	movf	tactsw@a+1,w
  2833  0F49  0673               	xorwf	tactsw@b+1,w
  2834  0F4A  1D03               	skipz
  2835  0F4B  2F4E               	goto	u1725
  2836  0F4C  0876               	movf	tactsw@a,w
  2837  0F4D  0672               	xorwf	tactsw@b,w
  2838  0F4E                     u1725:
  2839  0F4E  1D03               	skipz
  2840  0F4F  2F51               	goto	u1721
  2841  0F50  2F52               	goto	u1720
  2842  0F51                     u1721:
  2843  0F51  2F57               	goto	l2005
  2844  0F52                     u1720:
  2845  0F52                     l2003:
  2846  0F52  3001               	movlw	1
  2847  0F53  07F4               	addwf	tactsw@c,f
  2848  0F54  3000               	movlw	0
  2849  0F55  3DF5               	addwfc	tactsw@c+1,f
  2850  0F56  2F59               	goto	l2007
  2851  0F57                     l2005:
  2852  0F57  01F4               	clrf	tactsw@c
  2853  0F58  01F5               	clrf	tactsw@c+1
  2854  0F59                     l2007:
  2855                           
  2856                           ;Q5.c: 339:             if(c>10){flag_sw3=(~a)&0x01;return;}
  2857  0F59  3000               	movlw	0
  2858  0F5A  0275               	subwf	tactsw@c+1,w
  2859  0F5B  300B               	movlw	11
  2860  0F5C  1903               	skipnz
  2861  0F5D  0274               	subwf	tactsw@c,w
  2862  0F5E  1C03               	skipc
  2863  0F5F  2F61               	goto	u1731
  2864  0F60  2F62               	goto	u1730
  2865  0F61                     u1731:
  2866  0F61  2F6F               	goto	l2013
  2867  0F62                     u1730:
  2868  0F62                     l2009:
  2869  0F62  0877               	movf	tactsw@a+1,w
  2870  0F63  00F1               	movwf	??_tactsw+1
  2871  0F64  0876               	movf	tactsw@a,w
  2872  0F65  00F0               	movwf	??_tactsw
  2873  0F66  09F0               	comf	??_tactsw,f
  2874  0F67  09F1               	comf	??_tactsw+1,f
  2875  0F68  3001               	movlw	1
  2876  0F69  0570               	andwf	??_tactsw,w
  2877  0F6A  00EE               	movwf	_flag_sw3
  2878  0F6B  3000               	movlw	0
  2879  0F6C  0571               	andwf	??_tactsw+1,w
  2880  0F6D  00EF               	movwf	_flag_sw3+1
  2881  0F6E  2F74               	goto	l193
  2882  0F6F                     l2013:
  2883                           
  2884                           ;Q5.c: 340:             b=a;
  2885  0F6F  0877               	movf	tactsw@a+1,w
  2886  0F70  00F3               	movwf	tactsw@b+1
  2887  0F71  0876               	movf	tactsw@a,w
  2888  0F72  00F2               	movwf	tactsw@b
  2889  0F73  2F3C               	goto	l1999
  2890  0F74                     l193:
  2891  0F74  0008               	return
  2892  0F75                     __end_of_tactsw:
  2893                           
  2894                           	psect	text5
  2895  0EFC                     __ptext5:	
  2896 ;; *************** function ___lwdiv *****************
  2897 ;; Defined at:
  2898 ;;		line 5 in file "C:\Program Files\Microchip\xc8\v2.31\pic\sources\c99\common\lwdiv.c"
  2899 ;; Parameters:    Size  Location     Type
  2900 ;;  divisor         2    0[COMMON] unsigned int 
  2901 ;;  dividend        2    2[COMMON] unsigned int 
  2902 ;; Auto vars:     Size  Location     Type
  2903 ;;  quotient        2    5[COMMON] unsigned int 
  2904 ;;  counter         1    7[COMMON] unsigned char 
  2905 ;; Return value:  Size  Location     Type
  2906 ;;                  2    0[COMMON] unsigned int 
  2907 ;; Registers used:
  2908 ;;		wreg, status,2, status,0
  2909 ;; Tracked objects:
  2910 ;;		On entry : 0/0
  2911 ;;		On exit  : 0/0
  2912 ;;		Unchanged: 0/0
  2913 ;; Data sizes:     COMMON   BANK0   BANK1   BANK2   BANK3   BANK4   BANK5   BANK6   BANK7   BANK8   BANK9  BANK10  BANK1
      +1  BANK12
  2914 ;;      Params:         4       0       0       0       0       0       0       0       0       0       0       0       
      +0       0
  2915 ;;      Locals:         3       0       0       0       0       0       0       0       0       0       0       0       
      +0       0
  2916 ;;      Temps:          1       0       0       0       0       0       0       0       0       0       0       0       
      +0       0
  2917 ;;      Totals:         8       0       0       0       0       0       0       0       0       0       0       0       
      +0       0
  2918 ;;Total ram usage:        8 bytes
  2919 ;; Hardware stack levels used:    1
  2920 ;; This function calls:
  2921 ;;		Nothing
  2922 ;; This function is called by:
  2923 ;;		_waitSEGStop
  2924 ;;		_waitSEG
  2925 ;; This function uses a non-reentrant model
  2926 ;;
  2927                           
  2928                           
  2929                           ;psect for function ___lwdiv
  2930  0EFC                     ___lwdiv:
  2931  0EFC                     l2301:	
  2932                           ;incstack = 0
  2933                           ; Regs used in ___lwdiv: [wreg+status,2+status,0]
  2934                           
  2935  0EFC  01F5               	clrf	___lwdiv@quotient
  2936  0EFD  01F6               	clrf	___lwdiv@quotient+1
  2937  0EFE                     l2303:
  2938  0EFE  0870               	movf	___lwdiv@divisor,w
  2939  0EFF  0471               	iorwf	___lwdiv@divisor+1,w
  2940  0F00  1903               	btfsc	3,2
  2941  0F01  2F03               	goto	u2241
  2942  0F02  2F04               	goto	u2240
  2943  0F03                     u2241:
  2944  0F03  2F33               	goto	l2323
  2945  0F04                     u2240:
  2946  0F04                     l2305:
  2947  0F04  01F7               	clrf	___lwdiv@counter
  2948  0F05  0AF7               	incf	___lwdiv@counter,f
  2949  0F06  2F10               	goto	l2311
  2950  0F07                     l2307:
  2951  0F07  3001               	movlw	1
  2952  0F08                     u2255:
  2953  0F08  35F0               	lslf	___lwdiv@divisor,f
  2954  0F09  0DF1               	rlf	___lwdiv@divisor+1,f
  2955  0F0A  0B89               	decfsz	9,f
  2956  0F0B  2F08               	goto	u2255
  2957  0F0C                     l2309:
  2958  0F0C  3001               	movlw	1
  2959  0F0D  00F4               	movwf	??___lwdiv
  2960  0F0E  0874               	movf	??___lwdiv,w
  2961  0F0F  07F7               	addwf	___lwdiv@counter,f
  2962  0F10                     l2311:
  2963  0F10  1FF1               	btfss	___lwdiv@divisor+1,7
  2964  0F11  2F13               	goto	u2261
  2965  0F12  2F14               	goto	u2260
  2966  0F13                     u2261:
  2967  0F13  2F07               	goto	l2307
  2968  0F14                     u2260:
  2969  0F14                     l2313:
  2970  0F14  3001               	movlw	1
  2971  0F15                     u2275:
  2972  0F15  35F5               	lslf	___lwdiv@quotient,f
  2973  0F16  0DF6               	rlf	___lwdiv@quotient+1,f
  2974  0F17  0B89               	decfsz	9,f
  2975  0F18  2F15               	goto	u2275
  2976  0F19  0871               	movf	___lwdiv@divisor+1,w
  2977  0F1A  0273               	subwf	___lwdiv@dividend+1,w
  2978  0F1B  1D03               	skipz
  2979  0F1C  2F1F               	goto	u2285
  2980  0F1D  0870               	movf	___lwdiv@divisor,w
  2981  0F1E  0272               	subwf	___lwdiv@dividend,w
  2982  0F1F                     u2285:
  2983  0F1F  1C03               	skipc
  2984  0F20  2F22               	goto	u2281
  2985  0F21  2F23               	goto	u2280
  2986  0F22                     u2281:
  2987  0F22  2F28               	goto	l2319
  2988  0F23                     u2280:
  2989  0F23                     l2315:
  2990  0F23  0870               	movf	___lwdiv@divisor,w
  2991  0F24  02F2               	subwf	___lwdiv@dividend,f
  2992  0F25  0871               	movf	___lwdiv@divisor+1,w
  2993  0F26  3BF3               	subwfb	___lwdiv@dividend+1,f
  2994  0F27                     l2317:
  2995  0F27  1475               	bsf	___lwdiv@quotient,0
  2996  0F28                     l2319:
  2997  0F28  3001               	movlw	1
  2998  0F29                     u2295:
  2999  0F29  36F1               	lsrf	___lwdiv@divisor+1,f
  3000  0F2A  0CF0               	rrf	___lwdiv@divisor,f
  3001  0F2B  0B89               	decfsz	9,f
  3002  0F2C  2F29               	goto	u2295
  3003  0F2D                     l2321:
  3004  0F2D  3001               	movlw	1
  3005  0F2E  02F7               	subwf	___lwdiv@counter,f
  3006  0F2F  1D03               	btfss	3,2
  3007  0F30  2F32               	goto	u2301
  3008  0F31  2F33               	goto	u2300
  3009  0F32                     u2301:
  3010  0F32  2F14               	goto	l2313
  3011  0F33                     u2300:
  3012  0F33                     l2323:
  3013  0F33  0876               	movf	___lwdiv@quotient+1,w
  3014  0F34  00F1               	movwf	?___lwdiv+1
  3015  0F35  0875               	movf	___lwdiv@quotient,w
  3016  0F36  00F0               	movwf	?___lwdiv
  3017  0F37                     l749:
  3018  0F37  0008               	return
  3019  0F38                     __end_of___lwdiv:
  3020                           
  3021                           	psect	text6
  3022  0E66                     __ptext6:	
  3023 ;; *************** function _portinit *****************
  3024 ;; Defined at:
  3025 ;;		line 160 in file "Q5.c"
  3026 ;; Parameters:    Size  Location     Type
  3027 ;;		None
  3028 ;; Auto vars:     Size  Location     Type
  3029 ;;		None
  3030 ;; Return value:  Size  Location     Type
  3031 ;;                  1    wreg      void 
  3032 ;; Registers used:
  3033 ;;		wreg, status,2
  3034 ;; Tracked objects:
  3035 ;;		On entry : 0/0
  3036 ;;		On exit  : 0/0
  3037 ;;		Unchanged: 0/0
  3038 ;; Data sizes:     COMMON   BANK0   BANK1   BANK2   BANK3   BANK4   BANK5   BANK6   BANK7   BANK8   BANK9  BANK10  BANK1
      +1  BANK12
  3039 ;;      Params:         0       0       0       0       0       0       0       0       0       0       0       0       
      +0       0
  3040 ;;      Locals:         0       0       0       0       0       0       0       0       0       0       0       0       
      +0       0
  3041 ;;      Temps:          0       0       0       0       0       0       0       0       0       0       0       0       
      +0       0
  3042 ;;      Totals:         0       0       0       0       0       0       0       0       0       0       0       0       
      +0       0
  3043 ;;Total ram usage:        0 bytes
  3044 ;; Hardware stack levels used:    1
  3045 ;; This function calls:
  3046 ;;		Nothing
  3047 ;; This function is called by:
  3048 ;;		_main
  3049 ;; This function uses a non-reentrant model
  3050 ;;
  3051                           
  3052                           
  3053                           ;psect for function _portinit
  3054  0E66                     _portinit:
  3055  0E66                     l2327:	
  3056                           ;incstack = 0
  3057                           ; Regs used in _portinit: [wreg+status,2]
  3058                           
  3059                           
  3060                           ;Q5.c: 163:     ANSELA=0x00;
  3061  0E66  0023               	movlb	3	; select bank3
  3062  0E67  018C               	clrf	12	;volatile
  3063                           
  3064                           ;Q5.c: 164:     ANSELB=0x00;
  3065  0E68  018D               	clrf	13	;volatile
  3066  0E69                     l2329:
  3067                           
  3068                           ;Q5.c: 166:     PORTA=0x07;
  3069  0E69  3007               	movlw	7
  3070  0E6A  0020               	movlb	0	; select bank0
  3071  0E6B  008C               	movwf	12	;volatile
  3072  0E6C                     l2331:
  3073                           
  3074                           ;Q5.c: 167:     TRISA=0x07;
  3075  0E6C  3007               	movlw	7
  3076  0E6D  0021               	movlb	1	; select bank1
  3077  0E6E  008C               	movwf	12	;volatile
  3078                           
  3079                           ;Q5.c: 168:     PORTB=0x00;
  3080  0E6F  0020               	movlb	0	; select bank0
  3081  0E70  018D               	clrf	13	;volatile
  3082                           
  3083                           ;Q5.c: 169:     TRISB=0x00;
  3084  0E71  0021               	movlb	1	; select bank1
  3085  0E72  018D               	clrf	13	;volatile
  3086  0E73                     l2333:
  3087                           
  3088                           ;Q5.c: 170:     PORTC=0x07;
  3089  0E73  3007               	movlw	7
  3090  0E74  0020               	movlb	0	; select bank0
  3091  0E75  008E               	movwf	14	;volatile
  3092  0E76                     l2335:
  3093                           
  3094                           ;Q5.c: 171:     TRISC=0x00;
  3095  0E76  0021               	movlb	1	; select bank1
  3096  0E77  018E               	clrf	14	;volatile
  3097  0E78                     l95:
  3098  0E78  0008               	return
  3099  0E79                     __end_of_portinit:
  3100                           
  3101                           	psect	text7
  3102  0ED8                     __ptext7:	
  3103 ;; *************** function _motor *****************
  3104 ;; Defined at:
  3105 ;;		line 484 in file "Q5.c"
  3106 ;; Parameters:    Size  Location     Type
  3107 ;;  kakudo          2    8[BANK0 ] int 
  3108 ;;  dig1data        2   10[BANK0 ] unsigned short 
  3109 ;;  dig2data        2   12[BANK0 ] unsigned short 
  3110 ;;  smdata          2   14[BANK0 ] unsigned short 
  3111 ;;  tr              2   16[BANK0 ] unsigned int 
  3112 ;; Auto vars:     Size  Location     Type
  3113 ;;  i               2    8[COMMON] int 
  3114 ;; Return value:  Size  Location     Type
  3115 ;;                  1    wreg      void 
  3116 ;; Registers used:
  3117 ;;		wreg, fsr0l, fsr0h, status,2, status,0, pclath, cstack
  3118 ;; Tracked objects:
  3119 ;;		On entry : 0/0
  3120 ;;		On exit  : 0/0
  3121 ;;		Unchanged: 0/0
  3122 ;; Data sizes:     COMMON   BANK0   BANK1   BANK2   BANK3   BANK4   BANK5   BANK6   BANK7   BANK8   BANK9  BANK10  BANK1
      +1  BANK12
  3123 ;;      Params:         0      10       0       0       0       0       0       0       0       0       0       0       
      +0       0
  3124 ;;      Locals:         2       0       0       0       0       0       0       0       0       0       0       0       
      +0       0
  3125 ;;      Temps:          0       0       0       0       0       0       0       0       0       0       0       0       
      +0       0
  3126 ;;      Totals:         2      10       0       0       0       0       0       0       0       0       0       0       
      +0       0
  3127 ;;Total ram usage:       12 bytes
  3128 ;; Hardware stack levels used:    1
  3129 ;; Hardware stack levels required when called:    1
  3130 ;; This function calls:
  3131 ;;		_dynam
  3132 ;; This function is called by:
  3133 ;;		_main
  3134 ;;		_henka
  3135 ;; This function uses a non-reentrant model
  3136 ;;
  3137                           
  3138                           
  3139                           ;psect for function _motor
  3140  0ED8                     _motor:
  3141  0ED8                     l2557:	
  3142                           ;incstack = 0
  3143                           ; Regs used in _motor: [wreg-fsr0h+status,2+status,0+pclath+cstack]
  3144                           
  3145                           
  3146                           ;Q5.c: 486:     for(int i = kakudo;i>=0;i--){
  3147  0ED8  0020               	movlb	0	; select bank0
  3148  0ED9  0829               	movf	motor@kakudo+1,w
  3149  0EDA  00F9               	movwf	motor@i+1
  3150  0EDB  0828               	movf	motor@kakudo,w
  3151  0EDC  00F8               	movwf	motor@i
  3152  0EDD                     l2559:
  3153  0EDD  1FF9               	btfss	motor@i+1,7
  3154  0EDE  2EE0               	goto	u2581
  3155  0EDF  2EE1               	goto	u2580
  3156  0EE0                     u2581:
  3157  0EE0  2EE2               	goto	l2563
  3158  0EE1                     u2580:
  3159  0EE1  2EFB               	goto	l271
  3160  0EE2                     l2563:
  3161                           
  3162                           ;Q5.c: 487:         dynam(dig1data,dig2data,smdata,tr);
  3163  0EE2  0020               	movlb	0	; select bank0
  3164  0EE3  082B               	movf	motor@dig1data+1,w
  3165  0EE4  00F1               	movwf	dynam@dig1data+1
  3166  0EE5  082A               	movf	motor@dig1data,w
  3167  0EE6  00F0               	movwf	dynam@dig1data
  3168  0EE7  082D               	movf	motor@dig2data+1,w
  3169  0EE8  00F3               	movwf	dynam@dig2data+1
  3170  0EE9  082C               	movf	motor@dig2data,w
  3171  0EEA  00F2               	movwf	dynam@dig2data
  3172  0EEB  082F               	movf	motor@smdata+1,w
  3173  0EEC  00F5               	movwf	dynam@smdata+1
  3174  0EED  082E               	movf	motor@smdata,w
  3175  0EEE  00F4               	movwf	dynam@smdata
  3176  0EEF  0831               	movf	motor@tr+1,w
  3177  0EF0  00F7               	movwf	dynam@tr+1
  3178  0EF1  0830               	movf	motor@tr,w
  3179  0EF2  00F6               	movwf	dynam@tr
  3180  0EF3  3181  2176  318E   	fcall	_dynam
  3181  0EF6                     l2565:
  3182                           
  3183                           ;Q5.c: 488:     }
  3184  0EF6  30FF               	movlw	255
  3185  0EF7  07F8               	addwf	motor@i,f
  3186  0EF8  30FF               	movlw	255
  3187  0EF9  3DF9               	addwfc	motor@i+1,f
  3188  0EFA  2EDD               	goto	l2559
  3189  0EFB                     l271:
  3190  0EFB  0008               	return
  3191  0EFC                     __end_of_motor:
  3192                           
  3193                           	psect	text8
  3194  0176                     __ptext8:	
  3195 ;; *************** function _dynam *****************
  3196 ;; Defined at:
  3197 ;;		line 206 in file "Q5.c"
  3198 ;; Parameters:    Size  Location     Type
  3199 ;;  dig1data        2    0[COMMON] unsigned short 
  3200 ;;  dig2data        2    2[COMMON] unsigned short 
  3201 ;;  smdata          2    4[COMMON] unsigned short 
  3202 ;;  tr              2    6[COMMON] unsigned int 
  3203 ;; Auto vars:     Size  Location     Type
  3204 ;;  ext             2    6[BANK0 ] unsigned short 
  3205 ;;  j               2    4[BANK0 ] unsigned int 
  3206 ;;  tm              2    2[BANK0 ] unsigned int 
  3207 ;;  smd             2    0[BANK0 ] unsigned short 
  3208 ;; Return value:  Size  Location     Type
  3209 ;;                  1    wreg      void 
  3210 ;; Registers used:
  3211 ;;		wreg, fsr0l, fsr0h, status,2, status,0
  3212 ;; Tracked objects:
  3213 ;;		On entry : 0/0
  3214 ;;		On exit  : 0/0
  3215 ;;		Unchanged: 0/0
  3216 ;; Data sizes:     COMMON   BANK0   BANK1   BANK2   BANK3   BANK4   BANK5   BANK6   BANK7   BANK8   BANK9  BANK10  BANK1
      +1  BANK12
  3217 ;;      Params:         8       0       0       0       0       0       0       0       0       0       0       0       
      +0       0
  3218 ;;      Locals:         0       8       0       0       0       0       0       0       0       0       0       0       
      +0       0
  3219 ;;      Temps:          0       0       0       0       0       0       0       0       0       0       0       0       
      +0       0
  3220 ;;      Totals:         8       8       0       0       0       0       0       0       0       0       0       0       
      +0       0
  3221 ;;Total ram usage:       16 bytes
  3222 ;; Hardware stack levels used:    1
  3223 ;; This function calls:
  3224 ;;		Nothing
  3225 ;; This function is called by:
  3226 ;;		_waitSEGStop
  3227 ;;		_motor
  3228 ;;		_main
  3229 ;;		_clear
  3230 ;;		_waitSEG
  3231 ;;		_motorStop
  3232 ;; This function uses a non-reentrant model
  3233 ;;
  3234                           
  3235                           
  3236                           ;psect for function _dynam
  3237  0176                     _dynam:
  3238  0176                     l2015:	
  3239                           ;incstack = 0
  3240                           ; Regs used in _dynam: [wreg-fsr0h+status,2+status,0]
  3241                           
  3242  0176  0020               	movlb	0	; select bank0
  3243  0177  01A2               	clrf	dynam@tm
  3244  0178  01A3               	clrf	dynam@tm+1
  3245                           
  3246                           ;Q5.c: 209:     unsigned short ext=0,smd=0;
  3247  0179  01A6               	clrf	dynam@ext
  3248  017A  01A7               	clrf	dynam@ext+1
  3249  017B  01A0               	clrf	dynam@smd
  3250  017C  01A1               	clrf	dynam@smd+1
  3251  017D                     l2017:
  3252                           
  3253                           ;Q5.c: 210:     RC7=0;
  3254  017D  138E               	bcf	14,7	;volatile
  3255  017E                     l2019:
  3256                           
  3257                           ;Q5.c: 211:     PORTB=dig1data;
  3258  017E  0870               	movf	dynam@dig1data,w
  3259  017F  008D               	movwf	13	;volatile
  3260  0180                     l2021:
  3261                           
  3262                           ;Q5.c: 212:     RC5=0;RC6=1;
  3263  0180  128E               	bcf	14,5	;volatile
  3264  0181                     l2023:
  3265  0181  170E               	bsf	14,6	;volatile
  3266  0182                     l2025:
  3267                           
  3268                           ;Q5.c: 213:     if(tr==5){tm=4000;}
  3269  0182  3005               	movlw	5
  3270  0183  0676               	xorwf	dynam@tr,w
  3271  0184  0477               	iorwf	dynam@tr+1,w
  3272  0185  1D03               	btfss	3,2
  3273  0186  2988               	goto	u1741
  3274  0187  2989               	goto	u1740
  3275  0188                     u1741:
  3276  0188  298E               	goto	l2029
  3277  0189                     u1740:
  3278  0189                     l2027:
  3279  0189  30A0               	movlw	160
  3280  018A  00A2               	movwf	dynam@tm
  3281  018B  300F               	movlw	15
  3282  018C  00A3               	movwf	dynam@tm+1
  3283  018D  2992               	goto	l112
  3284  018E                     l2029:
  3285  018E  30D0               	movlw	208
  3286  018F  00A2               	movwf	dynam@tm
  3287  0190  3007               	movlw	7
  3288  0191  00A3               	movwf	dynam@tm+1
  3289  0192                     l112:
  3290                           
  3291                           ;Q5.c: 215:     for(j=tm;j>0;--j);
  3292  0192  0823               	movf	dynam@tm+1,w
  3293  0193  00A5               	movwf	dynam@j+1
  3294  0194  0822               	movf	dynam@tm,w
  3295  0195  00A4               	movwf	dynam@j
  3296  0196                     l2031:
  3297  0196  0824               	movf	dynam@j,w
  3298  0197  0425               	iorwf	dynam@j+1,w
  3299  0198  1D03               	btfss	3,2
  3300  0199  299B               	goto	u1751
  3301  019A  299C               	goto	u1750
  3302  019B                     u1751:
  3303  019B  299D               	goto	l2035
  3304  019C                     u1750:
  3305  019C  29A2               	goto	l114
  3306  019D                     l2035:
  3307  019D  3001               	movlw	1
  3308  019E  02A4               	subwf	dynam@j,f
  3309  019F  3000               	movlw	0
  3310  01A0  3BA5               	subwfb	dynam@j+1,f
  3311  01A1  2996               	goto	l2031
  3312  01A2                     l114:
  3313                           
  3314                           ;Q5.c: 216:     RC5=0;RC6=0;
  3315  01A2  128E               	bcf	14,5	;volatile
  3316  01A3  130E               	bcf	14,6	;volatile
  3317  01A4                     l2039:
  3318                           
  3319                           ;Q5.c: 217:     PORTB=dig2data;
  3320  01A4  0872               	movf	dynam@dig2data,w
  3321  01A5  008D               	movwf	13	;volatile
  3322  01A6                     l2041:
  3323                           
  3324                           ;Q5.c: 218:     RC6=0;RC5=1;
  3325  01A6  130E               	bcf	14,6	;volatile
  3326  01A7                     l2043:
  3327  01A7  168E               	bsf	14,5	;volatile
  3328  01A8                     l2045:
  3329                           
  3330                           ;Q5.c: 219:     if(tr==5){tm=4000;}
  3331  01A8  3005               	movlw	5
  3332  01A9  0676               	xorwf	dynam@tr,w
  3333  01AA  0477               	iorwf	dynam@tr+1,w
  3334  01AB  1D03               	btfss	3,2
  3335  01AC  29AE               	goto	u1761
  3336  01AD  29AF               	goto	u1760
  3337  01AE                     u1761:
  3338  01AE  29B4               	goto	l2049
  3339  01AF                     u1760:
  3340  01AF                     l2047:
  3341  01AF  30A0               	movlw	160
  3342  01B0  00A2               	movwf	dynam@tm
  3343  01B1  300F               	movlw	15
  3344  01B2  00A3               	movwf	dynam@tm+1
  3345  01B3  29B8               	goto	l116
  3346  01B4                     l2049:
  3347  01B4  30D0               	movlw	208
  3348  01B5  00A2               	movwf	dynam@tm
  3349  01B6  3007               	movlw	7
  3350  01B7  00A3               	movwf	dynam@tm+1
  3351  01B8                     l116:
  3352                           
  3353                           ;Q5.c: 221:     for(j=tm;j>0;--j);
  3354  01B8  0823               	movf	dynam@tm+1,w
  3355  01B9  00A5               	movwf	dynam@j+1
  3356  01BA  0822               	movf	dynam@tm,w
  3357  01BB  00A4               	movwf	dynam@j
  3358  01BC                     l2051:
  3359  01BC  0824               	movf	dynam@j,w
  3360  01BD  0425               	iorwf	dynam@j+1,w
  3361  01BE  1D03               	btfss	3,2
  3362  01BF  29C1               	goto	u1771
  3363  01C0  29C2               	goto	u1770
  3364  01C1                     u1771:
  3365  01C1  29C3               	goto	l2055
  3366  01C2                     u1770:
  3367  01C2  29C8               	goto	l118
  3368  01C3                     l2055:
  3369  01C3  3001               	movlw	1
  3370  01C4  02A4               	subwf	dynam@j,f
  3371  01C5  3000               	movlw	0
  3372  01C6  3BA5               	subwfb	dynam@j+1,f
  3373  01C7  29BC               	goto	l2051
  3374  01C8                     l118:
  3375                           
  3376                           ;Q5.c: 222:     RC5=0;RC6=0;
  3377  01C8  128E               	bcf	14,5	;volatile
  3378  01C9  130E               	bcf	14,6	;volatile
  3379                           
  3380                           ;Q5.c: 223:     switch(smdata){
  3381  01CA  2ACF               	goto	l2165
  3382  01CB                     l2059:
  3383                           
  3384                           ;Q5.c: 225:                 PORTB=0x00;smd=(0x01|0x02|0x04|0x08|0x10|0x20);
  3385  01CB  018D               	clrf	13	;volatile
  3386  01CC                     l2061:
  3387  01CC                     l2063:
  3388                           
  3389                           ;Q5.c: 226:                 RC7=0;RC7=1;RC7=0;
  3390  01CC  138E               	bcf	14,7	;volatile
  3391  01CD                     l2065:
  3392  01CD  178E               	bsf	14,7	;volatile
  3393  01CE                     l2067:
  3394  01CE  138E               	bcf	14,7	;volatile
  3395                           
  3396                           ;Q5.c: 227:                 break;
  3397  01CF  2ADF               	goto	l135
  3398  01D0                     l2069:
  3399                           
  3400                           ;Q5.c: 229:                 if(flg==1)cw=0;flg=0;
  3401  01D0  0368               	decf	_flg,w
  3402  01D1  0469               	iorwf	_flg+1,w
  3403  01D2  1D03               	btfss	3,2
  3404  01D3  29D5               	goto	u1781
  3405  01D4  29D6               	goto	u1780
  3406  01D5                     u1781:
  3407  01D5  29D8               	goto	l123
  3408  01D6                     u1780:
  3409  01D6                     l2071:
  3410  01D6  01E6               	clrf	_cw
  3411  01D7  01E7               	clrf	_cw+1
  3412  01D8                     l123:
  3413  01D8  01E8               	clrf	_flg
  3414  01D9  01E9               	clrf	_flg+1
  3415  01DA                     l2073:
  3416                           
  3417                           ;Q5.c: 230:                 if((cw==0)&&(ext==0)){cw=1;ccw=0;ext=1;PORTB=smd=0x09;}
  3418  01DA  0866               	movf	_cw,w
  3419  01DB  0467               	iorwf	_cw+1,w
  3420  01DC  1D03               	btfss	3,2
  3421  01DD  29DF               	goto	u1791
  3422  01DE  29E0               	goto	u1790
  3423  01DF                     u1791:
  3424  01DF  29F6               	goto	l2085
  3425  01E0                     u1790:
  3426  01E0                     l2075:
  3427  01E0  0826               	movf	dynam@ext,w
  3428  01E1  0427               	iorwf	dynam@ext+1,w
  3429  01E2  1D03               	btfss	3,2
  3430  01E3  29E5               	goto	u1801
  3431  01E4  29E6               	goto	u1800
  3432  01E5                     u1801:
  3433  01E5  29F6               	goto	l2085
  3434  01E6                     u1800:
  3435  01E6                     l2077:
  3436  01E6  3001               	movlw	1
  3437  01E7  00E6               	movwf	_cw
  3438  01E8  3000               	movlw	0
  3439  01E9  00E7               	movwf	_cw+1
  3440  01EA                     l2079:
  3441  01EA  01E4               	clrf	_ccw
  3442  01EB  01E5               	clrf	_ccw+1
  3443  01EC                     l2081:
  3444  01EC  3001               	movlw	1
  3445  01ED  00A6               	movwf	dynam@ext
  3446  01EE  3000               	movlw	0
  3447  01EF  00A7               	movwf	dynam@ext+1
  3448  01F0                     l2083:
  3449  01F0  3009               	movlw	9
  3450  01F1  00A0               	movwf	dynam@smd
  3451  01F2  3000               	movlw	0
  3452  01F3  00A1               	movwf	dynam@smd+1
  3453  01F4  0820               	movf	dynam@smd,w
  3454  01F5  008D               	movwf	13	;volatile
  3455  01F6                     l2085:
  3456                           
  3457                           ;Q5.c: 231:                 if((cw==1)&&(ext==0)){cw=2;ccw=3;ext=1;PORTB=smd=0x0C;}
  3458  01F6  0366               	decf	_cw,w
  3459  01F7  0467               	iorwf	_cw+1,w
  3460  01F8  1D03               	btfss	3,2
  3461  01F9  29FB               	goto	u1811
  3462  01FA  29FC               	goto	u1810
  3463  01FB                     u1811:
  3464  01FB  2A14               	goto	l2091
  3465  01FC                     u1810:
  3466  01FC                     l2087:
  3467  01FC  0826               	movf	dynam@ext,w
  3468  01FD  0427               	iorwf	dynam@ext+1,w
  3469  01FE  1D03               	btfss	3,2
  3470  01FF  2A01               	goto	u1821
  3471  0200  2A02               	goto	u1820
  3472  0201                     u1821:
  3473  0201  2A14               	goto	l2091
  3474  0202                     u1820:
  3475  0202                     l2089:
  3476  0202  3002               	movlw	2
  3477  0203  00E6               	movwf	_cw
  3478  0204  3000               	movlw	0
  3479  0205  00E7               	movwf	_cw+1
  3480  0206  3003               	movlw	3
  3481  0207  00E4               	movwf	_ccw
  3482  0208  3000               	movlw	0
  3483  0209  00E5               	movwf	_ccw+1
  3484  020A  3001               	movlw	1
  3485  020B  00A6               	movwf	dynam@ext
  3486  020C  3000               	movlw	0
  3487  020D  00A7               	movwf	dynam@ext+1
  3488  020E  300C               	movlw	12
  3489  020F  00A0               	movwf	dynam@smd
  3490  0210  3000               	movlw	0
  3491  0211  00A1               	movwf	dynam@smd+1
  3492  0212  0820               	movf	dynam@smd,w
  3493  0213  008D               	movwf	13	;volatile
  3494  0214                     l2091:
  3495                           
  3496                           ;Q5.c: 232:                 if((cw==2)&&(ext==0)){cw=3;ccw=2;ext=1;PORTB=smd=0x06;}
  3497  0214  3002               	movlw	2
  3498  0215  0666               	xorwf	_cw,w
  3499  0216  0467               	iorwf	_cw+1,w
  3500  0217  1D03               	btfss	3,2
  3501  0218  2A1A               	goto	u1831
  3502  0219  2A1B               	goto	u1830
  3503  021A                     u1831:
  3504  021A  2A33               	goto	l2097
  3505  021B                     u1830:
  3506  021B                     l2093:
  3507  021B  0826               	movf	dynam@ext,w
  3508  021C  0427               	iorwf	dynam@ext+1,w
  3509  021D  1D03               	btfss	3,2
  3510  021E  2A20               	goto	u1841
  3511  021F  2A21               	goto	u1840
  3512  0220                     u1841:
  3513  0220  2A33               	goto	l2097
  3514  0221                     u1840:
  3515  0221                     l2095:
  3516  0221  3003               	movlw	3
  3517  0222  00E6               	movwf	_cw
  3518  0223  3000               	movlw	0
  3519  0224  00E7               	movwf	_cw+1
  3520  0225  3002               	movlw	2
  3521  0226  00E4               	movwf	_ccw
  3522  0227  3000               	movlw	0
  3523  0228  00E5               	movwf	_ccw+1
  3524  0229  3001               	movlw	1
  3525  022A  00A6               	movwf	dynam@ext
  3526  022B  3000               	movlw	0
  3527  022C  00A7               	movwf	dynam@ext+1
  3528  022D  3006               	movlw	6
  3529  022E  00A0               	movwf	dynam@smd
  3530  022F  3000               	movlw	0
  3531  0230  00A1               	movwf	dynam@smd+1
  3532  0231  0820               	movf	dynam@smd,w
  3533  0232  008D               	movwf	13	;volatile
  3534  0233                     l2097:
  3535                           
  3536                           ;Q5.c: 233:                 if((cw==3)&&(ext==0)){cw=0;ccw=1;ext=1;PORTB=smd=0x03;}
  3537  0233  3003               	movlw	3
  3538  0234  0666               	xorwf	_cw,w
  3539  0235  0467               	iorwf	_cw+1,w
  3540  0236  1D03               	btfss	3,2
  3541  0237  2A39               	goto	u1851
  3542  0238  2A3A               	goto	u1850
  3543  0239                     u1851:
  3544  0239  29CC               	goto	l2063
  3545  023A                     u1850:
  3546  023A                     l2099:
  3547  023A  0826               	movf	dynam@ext,w
  3548  023B  0427               	iorwf	dynam@ext+1,w
  3549  023C  1D03               	btfss	3,2
  3550  023D  2A3F               	goto	u1861
  3551  023E  2A40               	goto	u1860
  3552  023F                     u1861:
  3553  023F  29CC               	goto	l2063
  3554  0240                     u1860:
  3555  0240                     l2101:
  3556  0240  01E6               	clrf	_cw
  3557  0241  01E7               	clrf	_cw+1
  3558  0242                     l2103:
  3559  0242  3001               	movlw	1
  3560  0243  00E4               	movwf	_ccw
  3561  0244  3000               	movlw	0
  3562  0245  00E5               	movwf	_ccw+1
  3563  0246                     l2105:
  3564  0246                     l2107:
  3565  0246  3003               	movlw	3
  3566  0247  00A0               	movwf	dynam@smd
  3567  0248  3000               	movlw	0
  3568  0249  00A1               	movwf	dynam@smd+1
  3569  024A  0820               	movf	dynam@smd,w
  3570  024B  008D               	movwf	13	;volatile
  3571  024C  29CC               	goto	l2063
  3572  024D                     l2115:
  3573                           
  3574                           ;Q5.c: 237:                 if(flg==1)ccw=0;flg=0;
  3575  024D  0368               	decf	_flg,w
  3576  024E  0469               	iorwf	_flg+1,w
  3577  024F  1D03               	btfss	3,2
  3578  0250  2A52               	goto	u1871
  3579  0251  2A53               	goto	u1870
  3580  0252                     u1871:
  3581  0252  2A55               	goto	l129
  3582  0253                     u1870:
  3583  0253                     l2117:
  3584  0253  01E4               	clrf	_ccw
  3585  0254  01E5               	clrf	_ccw+1
  3586  0255                     l129:
  3587  0255  01E8               	clrf	_flg
  3588  0256  01E9               	clrf	_flg+1
  3589  0257                     l2119:
  3590                           
  3591                           ;Q5.c: 238:                 if((ccw==0)&&(ext==0)){ccw=1;cw=0;ext=1;PORTB=smd=0x03;}
  3592  0257  0864               	movf	_ccw,w
  3593  0258  0465               	iorwf	_ccw+1,w
  3594  0259  1D03               	btfss	3,2
  3595  025A  2A5C               	goto	u1881
  3596  025B  2A5D               	goto	u1880
  3597  025C                     u1881:
  3598  025C  2A73               	goto	l2131
  3599  025D                     u1880:
  3600  025D                     l2121:
  3601  025D  0826               	movf	dynam@ext,w
  3602  025E  0427               	iorwf	dynam@ext+1,w
  3603  025F  1D03               	btfss	3,2
  3604  0260  2A62               	goto	u1891
  3605  0261  2A63               	goto	u1890
  3606  0262                     u1891:
  3607  0262  2A73               	goto	l2131
  3608  0263                     u1890:
  3609  0263                     l2123:
  3610  0263  3001               	movlw	1
  3611  0264  00E4               	movwf	_ccw
  3612  0265  3000               	movlw	0
  3613  0266  00E5               	movwf	_ccw+1
  3614  0267                     l2125:
  3615  0267  01E6               	clrf	_cw
  3616  0268  01E7               	clrf	_cw+1
  3617  0269                     l2127:
  3618  0269  3001               	movlw	1
  3619  026A  00A6               	movwf	dynam@ext
  3620  026B  3000               	movlw	0
  3621  026C  00A7               	movwf	dynam@ext+1
  3622  026D                     l2129:
  3623  026D  3003               	movlw	3
  3624  026E  00A0               	movwf	dynam@smd
  3625  026F  3000               	movlw	0
  3626  0270  00A1               	movwf	dynam@smd+1
  3627  0271  0820               	movf	dynam@smd,w
  3628  0272  008D               	movwf	13	;volatile
  3629  0273                     l2131:
  3630                           
  3631                           ;Q5.c: 239:                 if((ccw==1)&&(ext==0)){ccw=2;cw=3;ext=1;PORTB=smd=0x06;}
  3632  0273  0364               	decf	_ccw,w
  3633  0274  0465               	iorwf	_ccw+1,w
  3634  0275  1D03               	btfss	3,2
  3635  0276  2A78               	goto	u1901
  3636  0277  2A79               	goto	u1900
  3637  0278                     u1901:
  3638  0278  2A91               	goto	l2137
  3639  0279                     u1900:
  3640  0279                     l2133:
  3641  0279  0826               	movf	dynam@ext,w
  3642  027A  0427               	iorwf	dynam@ext+1,w
  3643  027B  1D03               	btfss	3,2
  3644  027C  2A7E               	goto	u1911
  3645  027D  2A7F               	goto	u1910
  3646  027E                     u1911:
  3647  027E  2A91               	goto	l2137
  3648  027F                     u1910:
  3649  027F                     l2135:
  3650  027F  3002               	movlw	2
  3651  0280  00E4               	movwf	_ccw
  3652  0281  3000               	movlw	0
  3653  0282  00E5               	movwf	_ccw+1
  3654  0283  3003               	movlw	3
  3655  0284  00E6               	movwf	_cw
  3656  0285  3000               	movlw	0
  3657  0286  00E7               	movwf	_cw+1
  3658  0287  3001               	movlw	1
  3659  0288  00A6               	movwf	dynam@ext
  3660  0289  3000               	movlw	0
  3661  028A  00A7               	movwf	dynam@ext+1
  3662  028B  3006               	movlw	6
  3663  028C  00A0               	movwf	dynam@smd
  3664  028D  3000               	movlw	0
  3665  028E  00A1               	movwf	dynam@smd+1
  3666  028F  0820               	movf	dynam@smd,w
  3667  0290  008D               	movwf	13	;volatile
  3668  0291                     l2137:
  3669                           
  3670                           ;Q5.c: 240:                 if((ccw==2)&&(ext==0)){ccw=3;cw=2;ext=1;PORTB=smd=0x0C;}
  3671  0291  3002               	movlw	2
  3672  0292  0664               	xorwf	_ccw,w
  3673  0293  0465               	iorwf	_ccw+1,w
  3674  0294  1D03               	btfss	3,2
  3675  0295  2A97               	goto	u1921
  3676  0296  2A98               	goto	u1920
  3677  0297                     u1921:
  3678  0297  2AB0               	goto	l2143
  3679  0298                     u1920:
  3680  0298                     l2139:
  3681  0298  0826               	movf	dynam@ext,w
  3682  0299  0427               	iorwf	dynam@ext+1,w
  3683  029A  1D03               	btfss	3,2
  3684  029B  2A9D               	goto	u1931
  3685  029C  2A9E               	goto	u1930
  3686  029D                     u1931:
  3687  029D  2AB0               	goto	l2143
  3688  029E                     u1930:
  3689  029E                     l2141:
  3690  029E  3003               	movlw	3
  3691  029F  00E4               	movwf	_ccw
  3692  02A0  3000               	movlw	0
  3693  02A1  00E5               	movwf	_ccw+1
  3694  02A2  3002               	movlw	2
  3695  02A3  00E6               	movwf	_cw
  3696  02A4  3000               	movlw	0
  3697  02A5  00E7               	movwf	_cw+1
  3698  02A6  3001               	movlw	1
  3699  02A7  00A6               	movwf	dynam@ext
  3700  02A8  3000               	movlw	0
  3701  02A9  00A7               	movwf	dynam@ext+1
  3702  02AA  300C               	movlw	12
  3703  02AB  00A0               	movwf	dynam@smd
  3704  02AC  3000               	movlw	0
  3705  02AD  00A1               	movwf	dynam@smd+1
  3706  02AE  0820               	movf	dynam@smd,w
  3707  02AF  008D               	movwf	13	;volatile
  3708  02B0                     l2143:
  3709                           
  3710                           ;Q5.c: 241:                 if((ccw==3)&&(ext==0)){ccw=0;cw=1;ext=1;PORTB=smd=0x09;}
  3711  02B0  3003               	movlw	3
  3712  02B1  0664               	xorwf	_ccw,w
  3713  02B2  0465               	iorwf	_ccw+1,w
  3714  02B3  1D03               	btfss	3,2
  3715  02B4  2AB6               	goto	u1941
  3716  02B5  2AB7               	goto	u1940
  3717  02B6                     u1941:
  3718  02B6  29CC               	goto	l2063
  3719  02B7                     u1940:
  3720  02B7                     l2145:
  3721  02B7  0826               	movf	dynam@ext,w
  3722  02B8  0427               	iorwf	dynam@ext+1,w
  3723  02B9  1D03               	btfss	3,2
  3724  02BA  2ABC               	goto	u1951
  3725  02BB  2ABD               	goto	u1950
  3726  02BC                     u1951:
  3727  02BC  29CC               	goto	l2063
  3728  02BD                     u1950:
  3729  02BD                     l2147:
  3730  02BD  01E4               	clrf	_ccw
  3731  02BE  01E5               	clrf	_ccw+1
  3732  02BF                     l2149:
  3733  02BF  3001               	movlw	1
  3734  02C0  00E6               	movwf	_cw
  3735  02C1  3000               	movlw	0
  3736  02C2  00E7               	movwf	_cw+1
  3737  02C3                     l2151:
  3738  02C3                     l2153:
  3739  02C3  3009               	movlw	9
  3740  02C4  00A0               	movwf	dynam@smd
  3741  02C5  3000               	movlw	0
  3742  02C6  00A1               	movwf	dynam@smd+1
  3743  02C7  0820               	movf	dynam@smd,w
  3744  02C8  008D               	movwf	13	;volatile
  3745  02C9  29CC               	goto	l2063
  3746  02CA                     l2161:
  3747                           
  3748                           ;Q5.c: 245:                 cw=ccw=0;
  3749  02CA  01E4               	clrf	_ccw
  3750  02CB  01E5               	clrf	_ccw+1
  3751  02CC  01E6               	clrf	_cw
  3752  02CD  01E7               	clrf	_cw+1
  3753                           
  3754                           ;Q5.c: 246:                 break;
  3755  02CE  2ADF               	goto	l135
  3756  02CF                     l2165:
  3757                           
  3758                           ; Switch on 2 bytes has been partitioned into a top level switch of size 1, and 1 sub-sw
      +                          itches
  3759                           ; Switch size 1, requested type "simple"
  3760                           ; Number of cases is 1, Range of values is 0 to 0
  3761                           ; switch strategies available:
  3762                           ; Name         Instructions Cycles
  3763                           ; simple_byte            4     3 (average)
  3764                           ; direct_byte            8     6 (fixed)
  3765                           ; jumptable            260     6 (fixed)
  3766                           ;	Chosen strategy is simple_byte
  3767  02CF  0875               	movf	dynam@smdata+1,w
  3768  02D0  3A00               	xorlw	0	; case 0
  3769  02D1  1903               	skipnz
  3770  02D2  2AD4               	goto	l3005
  3771  02D3  2ACA               	goto	l2161
  3772  02D4                     l3005:
  3773                           
  3774                           ; Switch size 1, requested type "simple"
  3775                           ; Number of cases is 3, Range of values is 0 to 2
  3776                           ; switch strategies available:
  3777                           ; Name         Instructions Cycles
  3778                           ; simple_byte           10     6 (average)
  3779                           ; direct_byte           12     6 (fixed)
  3780                           ; jumptable            260     6 (fixed)
  3781                           ;	Chosen strategy is simple_byte
  3782  02D4  0874               	movf	dynam@smdata,w
  3783  02D5  3A00               	xorlw	0	; case 0
  3784  02D6  1903               	skipnz
  3785  02D7  29CB               	goto	l2059
  3786  02D8  3A01               	xorlw	1	; case 1
  3787  02D9  1903               	skipnz
  3788  02DA  29D0               	goto	l2069
  3789  02DB  3A03               	xorlw	3	; case 2
  3790  02DC  1903               	skipnz
  3791  02DD  2A4D               	goto	l2115
  3792  02DE  2ACA               	goto	l2161
  3793  02DF                     l135:
  3794  02DF  0008               	return
  3795  02E0                     __end_of_dynam:
  3796                           
  3797                           	psect	text9
  3798  02E0                     __ptext9:	
  3799 ;; *************** function _hen7 *****************
  3800 ;; Defined at:
  3801 ;;		line 252 in file "Q5.c"
  3802 ;; Parameters:    Size  Location     Type
  3803 ;;  value           2    4[BANK0 ] int 
  3804 ;;  ns1             2    6[BANK0 ] unsigned short 
  3805 ;; Auto vars:     Size  Location     Type
  3806 ;;  n               2   22[BANK0 ] unsigned int 
  3807 ;;  m               2   20[BANK0 ] unsigned int 
  3808 ;;  l               2   18[BANK0 ] unsigned int 
  3809 ;;  value100        2   16[BANK0 ] int 
  3810 ;;  value10         2   14[BANK0 ] int 
  3811 ;;  value1          2   12[BANK0 ] int 
  3812 ;; Return value:  Size  Location     Type
  3813 ;;                  1    wreg      void 
  3814 ;; Registers used:
  3815 ;;		wreg, fsr0l, fsr0h, fsr1l, fsr1h, status,2, status,0, pclath, cstack
  3816 ;; Tracked objects:
  3817 ;;		On entry : 0/0
  3818 ;;		On exit  : 0/0
  3819 ;;		Unchanged: 0/0
  3820 ;; Data sizes:     COMMON   BANK0   BANK1   BANK2   BANK3   BANK4   BANK5   BANK6   BANK7   BANK8   BANK9  BANK10  BANK1
      +1  BANK12
  3821 ;;      Params:         0       4       0       0       0       0       0       0       0       0       0       0       
      +0       0
  3822 ;;      Locals:         0      12       0       0       0       0       0       0       0       0       0       0       
      +0       0
  3823 ;;      Temps:          0       4       0       0       0       0       0       0       0       0       0       0       
      +0       0
  3824 ;;      Totals:         0      20       0       0       0       0       0       0       0       0       0       0       
      +0       0
  3825 ;;Total ram usage:       20 bytes
  3826 ;; Hardware stack levels used:    1
  3827 ;; Hardware stack levels required when called:    1
  3828 ;; This function calls:
  3829 ;;		___awdiv
  3830 ;;		___awmod
  3831 ;;		___wmul
  3832 ;; This function is called by:
  3833 ;;		_main
  3834 ;; This function uses a non-reentrant model
  3835 ;;
  3836                           
  3837                           
  3838                           ;psect for function _hen7
  3839  02E0                     _hen7:
  3840  02E0                     l2367:	
  3841                           ;incstack = 0
  3842                           ; Regs used in _hen7: [wreg-fsr1h+status,2+status,0+pclath+cstack]
  3843                           
  3844                           
  3845                           ;Q5.c: 252: void hen7(int value,unsigned short ns1);Q5.c: 253: {;Q5.c: 254:     int valu
      +                          e100,value10,value1;;Q5.c: 255:     unsigned int l,m,n;;Q5.c: 256:     fugou=0;
  3846  02E0  0020               	movlb	0	; select bank0
  3847  02E1  01DA               	clrf	_fugou
  3848  02E2  01DB               	clrf	_fugou+1
  3849  02E3                     l2369:
  3850                           
  3851                           ;Q5.c: 257:     if(value<0)fugou=1;
  3852  02E3  1FA5               	btfss	hen7@value+1,7
  3853  02E4  2AE6               	goto	u2331
  3854  02E5  2AE7               	goto	u2330
  3855  02E6                     u2331:
  3856  02E6  2AEB               	goto	l2373
  3857  02E7                     u2330:
  3858  02E7                     l2371:
  3859  02E7  3001               	movlw	1
  3860  02E8  00DA               	movwf	_fugou
  3861  02E9  3000               	movlw	0
  3862  02EA  00DB               	movwf	_fugou+1
  3863  02EB                     l2373:
  3864                           
  3865                           ;Q5.c: 258:     if(fugou==1){
  3866  02EB  035A               	decf	_fugou,w
  3867  02EC  045B               	iorwf	_fugou+1,w
  3868  02ED  1D03               	btfss	3,2
  3869  02EE  2AF0               	goto	u2341
  3870  02EF  2AF1               	goto	u2340
  3871  02F0                     u2341:
  3872  02F0  2CA3               	goto	l2507
  3873  02F1                     u2340:
  3874  02F1                     l2375:
  3875                           
  3876                           ;Q5.c: 259:         value=(~(value-1));
  3877  02F1  0824               	movf	hen7@value,w
  3878  02F2  3EFF               	addlw	255
  3879  02F3  00A8               	movwf	??_hen7
  3880  02F4  30FF               	movlw	255
  3881  02F5  3D25               	addwfc	hen7@value+1,w
  3882  02F6  00A9               	movwf	??_hen7+1
  3883  02F7  0928               	comf	??_hen7,w
  3884  02F8  00A4               	movwf	hen7@value
  3885  02F9  0929               	comf	??_hen7+1,w
  3886  02FA  00A5               	movwf	hen7@value+1
  3887  02FB  2CA3               	goto	l2507
  3888  02FC                     l2377:
  3889                           
  3890                           ;Q5.c: 263:                 value100=value/100;
  3891  02FC  3064               	movlw	100
  3892  02FD  00F6               	movwf	___awdiv@divisor
  3893  02FE  3000               	movlw	0
  3894  02FF  00F7               	movwf	___awdiv@divisor+1
  3895  0300  0825               	movf	hen7@value+1,w
  3896  0301  00F9               	movwf	___awdiv@dividend+1
  3897  0302  0824               	movf	hen7@value,w
  3898  0303  00F8               	movwf	___awdiv@dividend
  3899  0304  3180  2093  3182   	fcall	___awdiv
  3900  0307  0877               	movf	?___awdiv+1,w
  3901  0308  0020               	movlb	0	; select bank0
  3902  0309  00B1               	movwf	hen7@value100+1
  3903  030A  0876               	movf	?___awdiv,w
  3904  030B  00B0               	movwf	hen7@value100
  3905                           
  3906                           ;Q5.c: 264:                 value10 =(value-(value100*100))/10;
  3907  030C  300A               	movlw	10
  3908  030D  00F6               	movwf	___awdiv@divisor
  3909  030E  3000               	movlw	0
  3910  030F  00F7               	movwf	___awdiv@divisor+1
  3911  0310  0831               	movf	hen7@value100+1,w
  3912  0311  00F1               	movwf	___wmul@multiplier+1
  3913  0312  0830               	movf	hen7@value100,w
  3914  0313  00F0               	movwf	___wmul@multiplier
  3915  0314  309C               	movlw	156
  3916  0315  00F2               	movwf	___wmul@multiplicand
  3917  0316  30FF               	movlw	255
  3918  0317  00F3               	movwf	___wmul@multiplicand+1
  3919  0318  318E  2679  3182   	fcall	___wmul
  3920  031B  0020               	movlb	0	; select bank0
  3921  031C  0824               	movf	hen7@value,w
  3922  031D  0770               	addwf	?___wmul,w
  3923  031E  00F8               	movwf	___awdiv@dividend
  3924  031F  0825               	movf	hen7@value+1,w
  3925  0320  3D71               	addwfc	?___wmul+1,w
  3926  0321  00F9               	movwf	___awdiv@dividend+1
  3927  0322  3180  2093  3182   	fcall	___awdiv
  3928  0325  0877               	movf	?___awdiv+1,w
  3929  0326  0020               	movlb	0	; select bank0
  3930  0327  00AF               	movwf	hen7@value10+1
  3931  0328  0876               	movf	?___awdiv,w
  3932  0329  00AE               	movwf	hen7@value10
  3933                           
  3934                           ;Q5.c: 265:                 value1 =value%10;
  3935  032A  300A               	movlw	10
  3936  032B  00F0               	movwf	___awmod@divisor
  3937  032C  3000               	movlw	0
  3938  032D  00F1               	movwf	___awmod@divisor+1
  3939  032E  0825               	movf	hen7@value+1,w
  3940  032F  00F3               	movwf	___awmod@dividend+1
  3941  0330  0824               	movf	hen7@value,w
  3942  0331  00F2               	movwf	___awmod@dividend
  3943  0332  3180  2040  3182   	fcall	___awmod
  3944  0335  0871               	movf	?___awmod+1,w
  3945  0336  0020               	movlb	0	; select bank0
  3946  0337  00AD               	movwf	hen7@value1+1
  3947  0338  0870               	movf	?___awmod,w
  3948  0339  00AC               	movwf	hen7@value1
  3949  033A                     l2379:
  3950                           
  3951                           ;Q5.c: 266:                 code1000=(0x01|0x02|0x04|0x08|0x10|0x20);
  3952  033A  303F               	movlw	63
  3953  033B  0021               	movlb	1	; select bank1
  3954  033C  00DE               	movwf	_code1000^(0+128)
  3955  033D  3000               	movlw	0
  3956  033E  00DF               	movwf	(_code1000^(0+128)+1)
  3957  033F                     l2381:
  3958                           
  3959                           ;Q5.c: 267:                 for(l=0;l<=2;++l){
  3960  033F  0020               	movlb	0	; select bank0
  3961  0340  01B2               	clrf	hen7@l
  3962  0341  01B3               	clrf	hen7@l+1
  3963  0342                     l2387:
  3964                           
  3965                           ;Q5.c: 268:                     if(value100==l)code100=samp[l];
  3966  0342  0833               	movf	hen7@l+1,w
  3967  0343  0631               	xorwf	hen7@value100+1,w
  3968  0344  1D03               	skipz
  3969  0345  2B48               	goto	u2355
  3970  0346  0832               	movf	hen7@l,w
  3971  0347  0630               	xorwf	hen7@value100,w
  3972  0348                     u2355:
  3973  0348  1D03               	skipz
  3974  0349  2B4B               	goto	u2351
  3975  034A  2B4C               	goto	u2350
  3976  034B                     u2351:
  3977  034B  2B55               	goto	l2391
  3978  034C                     u2350:
  3979  034C                     l2389:
  3980  034C  3532               	lslf	hen7@l,w
  3981  034D  3EA0               	addlw	(low (_samp| 0))& (0+255)
  3982  034E  0086               	movwf	6
  3983  034F  0187               	clrf	7
  3984  0350  3F40               	moviw [0]fsr1
  3985  0351  0021               	movlb	1	; select bank1
  3986  0352  00DC               	movwf	_code100^(0+128)
  3987  0353  3F41               	moviw [1]fsr1
  3988  0354  00DD               	movwf	(_code100+1)^(0+128)
  3989  0355                     l2391:
  3990                           
  3991                           ;Q5.c: 269:                 }
  3992  0355  3001               	movlw	1
  3993  0356  0020               	movlb	0	; select bank0
  3994  0357  07B2               	addwf	hen7@l,f
  3995  0358  3000               	movlw	0
  3996  0359  3DB3               	addwfc	hen7@l+1,f
  3997  035A                     l2393:
  3998  035A  3000               	movlw	0
  3999  035B  0233               	subwf	hen7@l+1,w
  4000  035C  3003               	movlw	3
  4001  035D  1903               	skipnz
  4002  035E  0232               	subwf	hen7@l,w
  4003  035F  1C03               	skipc
  4004  0360  2B62               	goto	u2361
  4005  0361  2B63               	goto	u2360
  4006  0362                     u2361:
  4007  0362  2B42               	goto	l2387
  4008  0363                     u2360:
  4009  0363                     l2395:
  4010                           
  4011                           ;Q5.c: 270:                 for(m=0;m<=9;++m){
  4012  0363  01B4               	clrf	hen7@m
  4013  0364  01B5               	clrf	hen7@m+1
  4014  0365                     l2401:
  4015                           
  4016                           ;Q5.c: 271:                     if(value10==m)code10=samp[m];
  4017  0365  0835               	movf	hen7@m+1,w
  4018  0366  062F               	xorwf	hen7@value10+1,w
  4019  0367  1D03               	skipz
  4020  0368  2B6B               	goto	u2375
  4021  0369  0834               	movf	hen7@m,w
  4022  036A  062E               	xorwf	hen7@value10,w
  4023  036B                     u2375:
  4024  036B  1D03               	skipz
  4025  036C  2B6E               	goto	u2371
  4026  036D  2B6F               	goto	u2370
  4027  036E                     u2371:
  4028  036E  2B77               	goto	l2405
  4029  036F                     u2370:
  4030  036F                     l2403:
  4031  036F  3534               	lslf	hen7@m,w
  4032  0370  3EA0               	addlw	(low (_samp| 0))& (0+255)
  4033  0371  0086               	movwf	6
  4034  0372  0187               	clrf	7
  4035  0373  3F40               	moviw [0]fsr1
  4036  0374  00DE               	movwf	_code10
  4037  0375  3F41               	moviw [1]fsr1
  4038  0376  00DF               	movwf	_code10+1
  4039  0377                     l2405:
  4040                           
  4041                           ;Q5.c: 272:                 }
  4042  0377  3001               	movlw	1
  4043  0378  07B4               	addwf	hen7@m,f
  4044  0379  3000               	movlw	0
  4045  037A  3DB5               	addwfc	hen7@m+1,f
  4046  037B                     l2407:
  4047  037B  3000               	movlw	0
  4048  037C  0235               	subwf	hen7@m+1,w
  4049  037D  300A               	movlw	10
  4050  037E  1903               	skipnz
  4051  037F  0234               	subwf	hen7@m,w
  4052  0380  1C03               	skipc
  4053  0381  2B83               	goto	u2381
  4054  0382  2B84               	goto	u2380
  4055  0383                     u2381:
  4056  0383  2B65               	goto	l2401
  4057  0384                     u2380:
  4058  0384                     l2409:
  4059                           
  4060                           ;Q5.c: 273:                 for(n=0;n<=9;++n){
  4061  0384  01B6               	clrf	hen7@n
  4062  0385  01B7               	clrf	hen7@n+1
  4063  0386                     l2415:
  4064                           
  4065                           ;Q5.c: 274:                     if(value1==n)code1=samp[n];
  4066  0386  0837               	movf	hen7@n+1,w
  4067  0387  062D               	xorwf	hen7@value1+1,w
  4068  0388  1D03               	skipz
  4069  0389  2B8C               	goto	u2395
  4070  038A  0836               	movf	hen7@n,w
  4071  038B  062C               	xorwf	hen7@value1,w
  4072  038C                     u2395:
  4073  038C  1D03               	skipz
  4074  038D  2B8F               	goto	u2391
  4075  038E  2B90               	goto	u2390
  4076  038F                     u2391:
  4077  038F  2B98               	goto	l2419
  4078  0390                     u2390:
  4079  0390                     l2417:
  4080  0390  3536               	lslf	hen7@n,w
  4081  0391  3EA0               	addlw	(low (_samp| 0))& (0+255)
  4082  0392  0086               	movwf	6
  4083  0393  0187               	clrf	7
  4084  0394  3F40               	moviw [0]fsr1
  4085  0395  00DC               	movwf	_code1
  4086  0396  3F41               	moviw [1]fsr1
  4087  0397  00DD               	movwf	_code1+1
  4088  0398                     l2419:
  4089                           
  4090                           ;Q5.c: 275:                 }
  4091  0398  3001               	movlw	1
  4092  0399  07B6               	addwf	hen7@n,f
  4093  039A  3000               	movlw	0
  4094  039B  3DB7               	addwfc	hen7@n+1,f
  4095  039C                     l2421:
  4096  039C  3000               	movlw	0
  4097  039D  0237               	subwf	hen7@n+1,w
  4098  039E  300A               	movlw	10
  4099  039F  1903               	skipnz
  4100  03A0  0236               	subwf	hen7@n,w
  4101  03A1  1C03               	skipc
  4102  03A2  2BA4               	goto	u2401
  4103  03A3  2BA5               	goto	u2400
  4104  03A4                     u2401:
  4105  03A4  2B86               	goto	l2415
  4106  03A5                     u2400:
  4107  03A5  2CB3               	goto	l170
  4108  03A6                     l2423:
  4109                           
  4110                           ;Q5.c: 278:                 value100=value>>6;
  4111  03A6  0825               	movf	hen7@value+1,w
  4112  03A7  00A9               	movwf	??_hen7+1
  4113  03A8  0824               	movf	hen7@value,w
  4114  03A9  00A8               	movwf	??_hen7
  4115  03AA  3006               	movlw	6
  4116  03AB  00AA               	movwf	??_hen7+2
  4117  03AC                     u2415:
  4118  03AC  0D29               	rlf	??_hen7+1,w
  4119  03AD  0CA9               	rrf	??_hen7+1,f
  4120  03AE  0CA8               	rrf	??_hen7,f
  4121  03AF  0BAA               	decfsz	??_hen7+2,f
  4122  03B0  2BAC               	goto	u2415
  4123  03B1  0828               	movf	??_hen7,w
  4124  03B2  00B0               	movwf	hen7@value100
  4125  03B3  0829               	movf	??_hen7+1,w
  4126  03B4  00B1               	movwf	hen7@value100+1
  4127                           
  4128                           ;Q5.c: 279:                 value10 =(value-(value100<<6))>>3;
  4129  03B5  0831               	movf	hen7@value100+1,w
  4130  03B6  00A9               	movwf	??_hen7+1
  4131  03B7  0830               	movf	hen7@value100,w
  4132  03B8  00A8               	movwf	??_hen7
  4133  03B9  3006               	movlw	6
  4134  03BA                     u2425:
  4135  03BA  35A8               	lslf	??_hen7,f
  4136  03BB  0DA9               	rlf	??_hen7+1,f
  4137  03BC  0B89               	decfsz	9,f
  4138  03BD  2BBA               	goto	u2425
  4139  03BE  0828               	movf	??_hen7,w
  4140  03BF  0224               	subwf	hen7@value,w
  4141  03C0  00AA               	movwf	??_hen7+2
  4142  03C1  0829               	movf	??_hen7+1,w
  4143  03C2  3B25               	subwfb	hen7@value+1,w
  4144  03C3  00AB               	movwf	??_hen7+3
  4145  03C4  0D2B               	rlf	??_hen7+3,w
  4146  03C5  0CAB               	rrf	??_hen7+3,f
  4147  03C6  0CAA               	rrf	??_hen7+2,f
  4148  03C7  0D2B               	rlf	??_hen7+3,w
  4149  03C8  0CAB               	rrf	??_hen7+3,f
  4150  03C9  0CAA               	rrf	??_hen7+2,f
  4151  03CA  0D2B               	rlf	??_hen7+3,w
  4152  03CB  0CAB               	rrf	??_hen7+3,f
  4153  03CC  0CAA               	rrf	??_hen7+2,f
  4154  03CD  082A               	movf	??_hen7+2,w
  4155  03CE  00AE               	movwf	hen7@value10
  4156  03CF  082B               	movf	??_hen7+3,w
  4157  03D0  00AF               	movwf	hen7@value10+1
  4158  03D1                     l2425:
  4159                           
  4160                           ;Q5.c: 280:                 value =value%8;
  4161  03D1  3007               	movlw	7
  4162  03D2  0524               	andwf	hen7@value,w
  4163  03D3  00A4               	movwf	hen7@value
  4164  03D4  3000               	movlw	0
  4165  03D5  0525               	andwf	hen7@value+1,w
  4166  03D6  00A5               	movwf	hen7@value+1
  4167  03D7                     l2427:
  4168                           
  4169                           ;Q5.c: 281:                 code1000=(0x01|0x02|0x04|0x08|0x10|0x20);
  4170  03D7  303F               	movlw	63
  4171  03D8  0021               	movlb	1	; select bank1
  4172  03D9  00DE               	movwf	_code1000^(0+128)
  4173  03DA  3000               	movlw	0
  4174  03DB  00DF               	movwf	(_code1000^(0+128)+1)
  4175  03DC                     l2429:
  4176                           
  4177                           ;Q5.c: 282:                 for(l=0;l<=3;++l){
  4178  03DC  0020               	movlb	0	; select bank0
  4179  03DD  01B2               	clrf	hen7@l
  4180  03DE  01B3               	clrf	hen7@l+1
  4181  03DF                     l2435:
  4182                           
  4183                           ;Q5.c: 283:                     if(value100==l)code100=samp[l];
  4184  03DF  0833               	movf	hen7@l+1,w
  4185  03E0  0631               	xorwf	hen7@value100+1,w
  4186  03E1  1D03               	skipz
  4187  03E2  2BE5               	goto	u2435
  4188  03E3  0832               	movf	hen7@l,w
  4189  03E4  0630               	xorwf	hen7@value100,w
  4190  03E5                     u2435:
  4191  03E5  1D03               	skipz
  4192  03E6  2BE8               	goto	u2431
  4193  03E7  2BE9               	goto	u2430
  4194  03E8                     u2431:
  4195  03E8  2BF2               	goto	l2439
  4196  03E9                     u2430:
  4197  03E9                     l2437:
  4198  03E9  3532               	lslf	hen7@l,w
  4199  03EA  3EA0               	addlw	(low (_samp| 0))& (0+255)
  4200  03EB  0086               	movwf	6
  4201  03EC  0187               	clrf	7
  4202  03ED  3F40               	moviw [0]fsr1
  4203  03EE  0021               	movlb	1	; select bank1
  4204  03EF  00DC               	movwf	_code100^(0+128)
  4205  03F0  3F41               	moviw [1]fsr1
  4206  03F1  00DD               	movwf	(_code100+1)^(0+128)
  4207  03F2                     l2439:
  4208                           
  4209                           ;Q5.c: 284:                 }
  4210  03F2  3001               	movlw	1
  4211  03F3  0020               	movlb	0	; select bank0
  4212  03F4  07B2               	addwf	hen7@l,f
  4213  03F5  3000               	movlw	0
  4214  03F6  3DB3               	addwfc	hen7@l+1,f
  4215  03F7                     l2441:
  4216  03F7  3000               	movlw	0
  4217  03F8  0233               	subwf	hen7@l+1,w
  4218  03F9  3004               	movlw	4
  4219  03FA  1903               	skipnz
  4220  03FB  0232               	subwf	hen7@l,w
  4221  03FC  1C03               	skipc
  4222  03FD  2BFF               	goto	u2441
  4223  03FE  2C00               	goto	u2440
  4224  03FF                     u2441:
  4225  03FF  2BDF               	goto	l2435
  4226  0400                     u2440:
  4227  0400                     l2443:
  4228                           
  4229                           ;Q5.c: 285:                 for(m=0;m<=7;++m){
  4230  0400  01B4               	clrf	hen7@m
  4231  0401  01B5               	clrf	hen7@m+1
  4232  0402                     l2449:
  4233                           
  4234                           ;Q5.c: 286:                     if(value10==m)code10=samp[m];
  4235  0402  0835               	movf	hen7@m+1,w
  4236  0403  062F               	xorwf	hen7@value10+1,w
  4237  0404  1D03               	skipz
  4238  0405  2C08               	goto	u2455
  4239  0406  0834               	movf	hen7@m,w
  4240  0407  062E               	xorwf	hen7@value10,w
  4241  0408                     u2455:
  4242  0408  1D03               	skipz
  4243  0409  2C0B               	goto	u2451
  4244  040A  2C0C               	goto	u2450
  4245  040B                     u2451:
  4246  040B  2C14               	goto	l2453
  4247  040C                     u2450:
  4248  040C                     l2451:
  4249  040C  3534               	lslf	hen7@m,w
  4250  040D  3EA0               	addlw	(low (_samp| 0))& (0+255)
  4251  040E  0086               	movwf	6
  4252  040F  0187               	clrf	7
  4253  0410  3F40               	moviw [0]fsr1
  4254  0411  00DE               	movwf	_code10
  4255  0412  3F41               	moviw [1]fsr1
  4256  0413  00DF               	movwf	_code10+1
  4257  0414                     l2453:
  4258                           
  4259                           ;Q5.c: 287:                 }
  4260  0414  3001               	movlw	1
  4261  0415  07B4               	addwf	hen7@m,f
  4262  0416  3000               	movlw	0
  4263  0417  3DB5               	addwfc	hen7@m+1,f
  4264  0418                     l2455:
  4265  0418  3000               	movlw	0
  4266  0419  0235               	subwf	hen7@m+1,w
  4267  041A  3008               	movlw	8
  4268  041B  1903               	skipnz
  4269  041C  0234               	subwf	hen7@m,w
  4270  041D  1C03               	skipc
  4271  041E  2C20               	goto	u2461
  4272  041F  2C21               	goto	u2460
  4273  0420                     u2461:
  4274  0420  2C02               	goto	l2449
  4275  0421                     u2460:
  4276  0421                     l2457:
  4277                           
  4278                           ;Q5.c: 288:                 for(n=0;n<=7;++n){
  4279  0421  01B6               	clrf	hen7@n
  4280  0422  01B7               	clrf	hen7@n+1
  4281  0423                     l2463:
  4282                           
  4283                           ;Q5.c: 289:                     if(value1==n)code1=samp[n];
  4284  0423  0837               	movf	hen7@n+1,w
  4285  0424  062D               	xorwf	hen7@value1+1,w
  4286  0425  1D03               	skipz
  4287  0426  2C29               	goto	u2475
  4288  0427  0836               	movf	hen7@n,w
  4289  0428  062C               	xorwf	hen7@value1,w
  4290  0429                     u2475:
  4291  0429  1D03               	skipz
  4292  042A  2C2C               	goto	u2471
  4293  042B  2C2D               	goto	u2470
  4294  042C                     u2471:
  4295  042C  2C35               	goto	l2467
  4296  042D                     u2470:
  4297  042D                     l2465:
  4298  042D  3536               	lslf	hen7@n,w
  4299  042E  3EA0               	addlw	(low (_samp| 0))& (0+255)
  4300  042F  0086               	movwf	6
  4301  0430  0187               	clrf	7
  4302  0431  3F40               	moviw [0]fsr1
  4303  0432  00DC               	movwf	_code1
  4304  0433  3F41               	moviw [1]fsr1
  4305  0434  00DD               	movwf	_code1+1
  4306  0435                     l2467:
  4307                           
  4308                           ;Q5.c: 290:                 }
  4309  0435  3001               	movlw	1
  4310  0436  07B6               	addwf	hen7@n,f
  4311  0437  3000               	movlw	0
  4312  0438  3DB7               	addwfc	hen7@n+1,f
  4313  0439                     l2469:
  4314  0439  3000               	movlw	0
  4315  043A  0237               	subwf	hen7@n+1,w
  4316  043B  3008               	movlw	8
  4317  043C  1903               	skipnz
  4318  043D  0236               	subwf	hen7@n,w
  4319  043E  1C03               	skipc
  4320  043F  2C41               	goto	u2481
  4321  0440  2C42               	goto	u2480
  4322  0441                     u2481:
  4323  0441  2C23               	goto	l2463
  4324  0442                     u2480:
  4325  0442  2CB3               	goto	l170
  4326  0443                     l2471:
  4327                           
  4328                           ;Q5.c: 293:                 code1000=(0x01|0x02|0x04|0x08|0x10|0x20);
  4329  0443  303F               	movlw	63
  4330  0444  0021               	movlb	1	; select bank1
  4331  0445  00DE               	movwf	_code1000^(0+128)
  4332  0446  3000               	movlw	0
  4333  0447  00DF               	movwf	(_code1000^(0+128)+1)
  4334                           
  4335                           ;Q5.c: 294:                 code100=(0x01|0x02|0x04|0x08|0x10|0x20);
  4336  0448  303F               	movlw	63
  4337  0449  00DC               	movwf	_code100^(0+128)
  4338  044A  3000               	movlw	0
  4339  044B  00DD               	movwf	(_code100^(0+128)+1)
  4340  044C                     l2473:
  4341                           
  4342                           ;Q5.c: 295:                 value10 =value>>4;
  4343  044C  0020               	movlb	0	; select bank0
  4344  044D  0E24               	swapf	hen7@value,w
  4345  044E  390F               	andlw	15
  4346  044F  00AE               	movwf	hen7@value10
  4347  0450  0E25               	swapf	hen7@value+1,w
  4348  0451  39F0               	andlw	240
  4349  0452  04AE               	iorwf	hen7@value10,f
  4350  0453  0E25               	swapf	hen7@value+1,w
  4351  0454  390F               	andlw	15
  4352  0455  00AF               	movwf	hen7@value10+1
  4353  0456  30F0               	movlw	240
  4354  0457  1DAF               	btfss	hen7@value10+1,3
  4355  0458  3000               	movlw	0
  4356  0459  04AF               	iorwf	hen7@value10+1,f
  4357  045A                     l2475:
  4358                           
  4359                           ;Q5.c: 296:                 value1 =value%16;
  4360  045A  300F               	movlw	15
  4361  045B  0524               	andwf	hen7@value,w
  4362  045C  00AC               	movwf	hen7@value1
  4363  045D  3000               	movlw	0
  4364  045E  0525               	andwf	hen7@value+1,w
  4365  045F  00AD               	movwf	hen7@value1+1
  4366  0460                     l2477:
  4367                           
  4368                           ;Q5.c: 297:                 for(m=0;m<=15;++m){
  4369  0460  01B4               	clrf	hen7@m
  4370  0461  01B5               	clrf	hen7@m+1
  4371  0462                     l2483:
  4372                           
  4373                           ;Q5.c: 298:                     if(value10==m)code10=samp[m];
  4374  0462  0835               	movf	hen7@m+1,w
  4375  0463  062F               	xorwf	hen7@value10+1,w
  4376  0464  1D03               	skipz
  4377  0465  2C68               	goto	u2495
  4378  0466  0834               	movf	hen7@m,w
  4379  0467  062E               	xorwf	hen7@value10,w
  4380  0468                     u2495:
  4381  0468  1D03               	skipz
  4382  0469  2C6B               	goto	u2491
  4383  046A  2C6C               	goto	u2490
  4384  046B                     u2491:
  4385  046B  2C74               	goto	l2487
  4386  046C                     u2490:
  4387  046C                     l2485:
  4388  046C  3534               	lslf	hen7@m,w
  4389  046D  3EA0               	addlw	(low (_samp| 0))& (0+255)
  4390  046E  0086               	movwf	6
  4391  046F  0187               	clrf	7
  4392  0470  3F40               	moviw [0]fsr1
  4393  0471  00DE               	movwf	_code10
  4394  0472  3F41               	moviw [1]fsr1
  4395  0473  00DF               	movwf	_code10+1
  4396  0474                     l2487:
  4397                           
  4398                           ;Q5.c: 299:                 }
  4399  0474  3001               	movlw	1
  4400  0475  07B4               	addwf	hen7@m,f
  4401  0476  3000               	movlw	0
  4402  0477  3DB5               	addwfc	hen7@m+1,f
  4403  0478                     l2489:
  4404  0478  3000               	movlw	0
  4405  0479  0235               	subwf	hen7@m+1,w
  4406  047A  3010               	movlw	16
  4407  047B  1903               	skipnz
  4408  047C  0234               	subwf	hen7@m,w
  4409  047D  1C03               	skipc
  4410  047E  2C80               	goto	u2501
  4411  047F  2C81               	goto	u2500
  4412  0480                     u2501:
  4413  0480  2C62               	goto	l2483
  4414  0481                     u2500:
  4415  0481                     l2491:
  4416                           
  4417                           ;Q5.c: 300:                 for(n=0;n<=15;++n){
  4418  0481  01B6               	clrf	hen7@n
  4419  0482  01B7               	clrf	hen7@n+1
  4420  0483                     l2497:
  4421                           
  4422                           ;Q5.c: 301:                     if(value1==n)code1=samp[n];
  4423  0483  0837               	movf	hen7@n+1,w
  4424  0484  062D               	xorwf	hen7@value1+1,w
  4425  0485  1D03               	skipz
  4426  0486  2C89               	goto	u2515
  4427  0487  0836               	movf	hen7@n,w
  4428  0488  062C               	xorwf	hen7@value1,w
  4429  0489                     u2515:
  4430  0489  1D03               	skipz
  4431  048A  2C8C               	goto	u2511
  4432  048B  2C8D               	goto	u2510
  4433  048C                     u2511:
  4434  048C  2C95               	goto	l2501
  4435  048D                     u2510:
  4436  048D                     l2499:
  4437  048D  3536               	lslf	hen7@n,w
  4438  048E  3EA0               	addlw	(low (_samp| 0))& (0+255)
  4439  048F  0086               	movwf	6
  4440  0490  0187               	clrf	7
  4441  0491  3F40               	moviw [0]fsr1
  4442  0492  00DC               	movwf	_code1
  4443  0493  3F41               	moviw [1]fsr1
  4444  0494  00DD               	movwf	_code1+1
  4445  0495                     l2501:
  4446                           
  4447                           ;Q5.c: 302:                 }
  4448  0495  3001               	movlw	1
  4449  0496  07B6               	addwf	hen7@n,f
  4450  0497  3000               	movlw	0
  4451  0498  3DB7               	addwfc	hen7@n+1,f
  4452  0499                     l2503:
  4453  0499  3000               	movlw	0
  4454  049A  0237               	subwf	hen7@n+1,w
  4455  049B  3010               	movlw	16
  4456  049C  1903               	skipnz
  4457  049D  0236               	subwf	hen7@n,w
  4458  049E  1C03               	skipc
  4459  049F  2CA1               	goto	u2521
  4460  04A0  2CA2               	goto	u2520
  4461  04A1                     u2521:
  4462  04A1  2C83               	goto	l2497
  4463  04A2                     u2520:
  4464  04A2  2CB3               	goto	l170
  4465  04A3                     l2507:
  4466                           
  4467                           ; Switch on 2 bytes has been partitioned into a top level switch of size 1, and 1 sub-sw
      +                          itches
  4468                           ; Switch size 1, requested type "simple"
  4469                           ; Number of cases is 1, Range of values is 0 to 0
  4470                           ; switch strategies available:
  4471                           ; Name         Instructions Cycles
  4472                           ; simple_byte            4     3 (average)
  4473                           ; direct_byte            8     6 (fixed)
  4474                           ; jumptable            260     6 (fixed)
  4475                           ;	Chosen strategy is simple_byte
  4476  04A3  0827               	movf	hen7@ns1+1,w
  4477  04A4  3A00               	xorlw	0	; case 0
  4478  04A5  1903               	skipnz
  4479  04A6  2CA8               	goto	l3007
  4480  04A7  2CB3               	goto	l170
  4481  04A8                     l3007:
  4482                           
  4483                           ; Switch size 1, requested type "simple"
  4484                           ; Number of cases is 3, Range of values is 8 to 16
  4485                           ; switch strategies available:
  4486                           ; Name         Instructions Cycles
  4487                           ; simple_byte           10     6 (average)
  4488                           ; direct_byte           27     9 (fixed)
  4489                           ; jumptable            263     9 (fixed)
  4490                           ;	Chosen strategy is simple_byte
  4491  04A8  0826               	movf	hen7@ns1,w
  4492  04A9  3A08               	xorlw	8	; case 8
  4493  04AA  1903               	skipnz
  4494  04AB  2BA6               	goto	l2423
  4495  04AC  3A02               	xorlw	2	; case 10
  4496  04AD  1903               	skipnz
  4497  04AE  2AFC               	goto	l2377
  4498  04AF  3A1A               	xorlw	26	; case 16
  4499  04B0  1903               	skipnz
  4500  04B1  2C43               	goto	l2471
  4501  04B2  2CB3               	goto	l170
  4502  04B3                     l170:
  4503  04B3  0008               	return
  4504  04B4                     __end_of_hen7:
  4505                           
  4506                           	psect	text10
  4507  0E79                     __ptext10:	
  4508 ;; *************** function ___wmul *****************
  4509 ;; Defined at:
  4510 ;;		line 15 in file "C:\Program Files\Microchip\xc8\v2.31\pic\sources\c99\common\Umul16.c"
  4511 ;; Parameters:    Size  Location     Type
  4512 ;;  multiplier      2    0[COMMON] unsigned int 
  4513 ;;  multiplicand    2    2[COMMON] unsigned int 
  4514 ;; Auto vars:     Size  Location     Type
  4515 ;;  product         2    4[COMMON] unsigned int 
  4516 ;; Return value:  Size  Location     Type
  4517 ;;                  2    0[COMMON] unsigned int 
  4518 ;; Registers used:
  4519 ;;		wreg, status,2, status,0
  4520 ;; Tracked objects:
  4521 ;;		On entry : 0/0
  4522 ;;		On exit  : 0/0
  4523 ;;		Unchanged: 0/0
  4524 ;; Data sizes:     COMMON   BANK0   BANK1   BANK2   BANK3   BANK4   BANK5   BANK6   BANK7   BANK8   BANK9  BANK10  BANK1
      +1  BANK12
  4525 ;;      Params:         4       0       0       0       0       0       0       0       0       0       0       0       
      +0       0
  4526 ;;      Locals:         2       0       0       0       0       0       0       0       0       0       0       0       
      +0       0
  4527 ;;      Temps:          0       0       0       0       0       0       0       0       0       0       0       0       
      +0       0
  4528 ;;      Totals:         6       0       0       0       0       0       0       0       0       0       0       0       
      +0       0
  4529 ;;Total ram usage:        6 bytes
  4530 ;; Hardware stack levels used:    1
  4531 ;; This function calls:
  4532 ;;		Nothing
  4533 ;; This function is called by:
  4534 ;;		_hen7
  4535 ;;		_main
  4536 ;;		_wait
  4537 ;;		_hens
  4538 ;; This function uses a non-reentrant model
  4539 ;;
  4540                           
  4541                           
  4542                           ;psect for function ___wmul
  4543  0E79                     ___wmul:
  4544  0E79                     l2205:	
  4545                           ;incstack = 0
  4546                           ; Regs used in ___wmul: [wreg+status,2+status,0]
  4547                           
  4548  0E79  01F4               	clrf	___wmul@product
  4549  0E7A  01F5               	clrf	___wmul@product+1
  4550  0E7B                     l2207:
  4551  0E7B  1C70               	btfss	___wmul@multiplier,0
  4552  0E7C  2E7E               	goto	u2011
  4553  0E7D  2E7F               	goto	u2010
  4554  0E7E                     u2011:
  4555  0E7E  2E83               	goto	l469
  4556  0E7F                     u2010:
  4557  0E7F                     l2209:
  4558  0E7F  0872               	movf	___wmul@multiplicand,w
  4559  0E80  07F4               	addwf	___wmul@product,f
  4560  0E81  0873               	movf	___wmul@multiplicand+1,w
  4561  0E82  3DF5               	addwfc	___wmul@product+1,f
  4562  0E83                     l469:
  4563  0E83  3001               	movlw	1
  4564  0E84                     u2025:
  4565  0E84  35F2               	lslf	___wmul@multiplicand,f
  4566  0E85  0DF3               	rlf	___wmul@multiplicand+1,f
  4567  0E86  0B89               	decfsz	9,f
  4568  0E87  2E84               	goto	u2025
  4569  0E88                     l2211:
  4570  0E88  3001               	movlw	1
  4571  0E89                     u2035:
  4572  0E89  36F1               	lsrf	___wmul@multiplier+1,f
  4573  0E8A  0CF0               	rrf	___wmul@multiplier,f
  4574  0E8B  0B89               	decfsz	9,f
  4575  0E8C  2E89               	goto	u2035
  4576  0E8D                     l2213:
  4577  0E8D  0870               	movf	___wmul@multiplier,w
  4578  0E8E  0471               	iorwf	___wmul@multiplier+1,w
  4579  0E8F  1D03               	btfss	3,2
  4580  0E90  2E92               	goto	u2041
  4581  0E91  2E93               	goto	u2040
  4582  0E92                     u2041:
  4583  0E92  2E7B               	goto	l2207
  4584  0E93                     u2040:
  4585  0E93                     l2215:
  4586  0E93  0875               	movf	___wmul@product+1,w
  4587  0E94  00F1               	movwf	?___wmul+1
  4588  0E95  0874               	movf	___wmul@product,w
  4589  0E96  00F0               	movwf	?___wmul
  4590  0E97                     l471:
  4591  0E97  0008               	return
  4592  0E98                     __end_of___wmul:
  4593                           
  4594                           	psect	text11
  4595  0040                     __ptext11:	
  4596 ;; *************** function ___awmod *****************
  4597 ;; Defined at:
  4598 ;;		line 5 in file "C:\Program Files\Microchip\xc8\v2.31\pic\sources\c99\common\awmod.c"
  4599 ;; Parameters:    Size  Location     Type
  4600 ;;  divisor         2    0[COMMON] int 
  4601 ;;  dividend        2    2[COMMON] int 
  4602 ;; Auto vars:     Size  Location     Type
  4603 ;;  sign            1    6[COMMON] unsigned char 
  4604 ;;  counter         1    5[COMMON] unsigned char 
  4605 ;; Return value:  Size  Location     Type
  4606 ;;                  2    0[COMMON] int 
  4607 ;; Registers used:
  4608 ;;		wreg, status,2, status,0
  4609 ;; Tracked objects:
  4610 ;;		On entry : 0/0
  4611 ;;		On exit  : 0/0
  4612 ;;		Unchanged: 0/0
  4613 ;; Data sizes:     COMMON   BANK0   BANK1   BANK2   BANK3   BANK4   BANK5   BANK6   BANK7   BANK8   BANK9  BANK10  BANK1
      +1  BANK12
  4614 ;;      Params:         4       0       0       0       0       0       0       0       0       0       0       0       
      +0       0
  4615 ;;      Locals:         2       0       0       0       0       0       0       0       0       0       0       0       
      +0       0
  4616 ;;      Temps:          1       0       0       0       0       0       0       0       0       0       0       0       
      +0       0
  4617 ;;      Totals:         7       0       0       0       0       0       0       0       0       0       0       0       
      +0       0
  4618 ;;Total ram usage:        7 bytes
  4619 ;; Hardware stack levels used:    1
  4620 ;; This function calls:
  4621 ;;		Nothing
  4622 ;; This function is called by:
  4623 ;;		_hen7
  4624 ;; This function uses a non-reentrant model
  4625 ;;
  4626                           
  4627                           
  4628                           ;psect for function ___awmod
  4629  0040                     ___awmod:
  4630  0040                     l2263:	
  4631                           ;incstack = 0
  4632                           ; Regs used in ___awmod: [wreg+status,2+status,0]
  4633                           
  4634  0040  01F6               	clrf	___awmod@sign
  4635  0041                     l2265:
  4636  0041  1FF3               	btfss	___awmod@dividend+1,7
  4637  0042  2844               	goto	u2151
  4638  0043  2845               	goto	u2150
  4639  0044                     u2151:
  4640  0044  284C               	goto	l2271
  4641  0045                     u2150:
  4642  0045                     l2267:
  4643  0045  09F2               	comf	___awmod@dividend,f
  4644  0046  09F3               	comf	___awmod@dividend+1,f
  4645  0047  0AF2               	incf	___awmod@dividend,f
  4646  0048  1903               	skipnz
  4647  0049  0AF3               	incf	___awmod@dividend+1,f
  4648  004A                     l2269:
  4649  004A  01F6               	clrf	___awmod@sign
  4650  004B  0AF6               	incf	___awmod@sign,f
  4651  004C                     l2271:
  4652  004C  1FF1               	btfss	___awmod@divisor+1,7
  4653  004D  284F               	goto	u2161
  4654  004E  2850               	goto	u2160
  4655  004F                     u2161:
  4656  004F  2855               	goto	l2275
  4657  0050                     u2160:
  4658  0050                     l2273:
  4659  0050  09F0               	comf	___awmod@divisor,f
  4660  0051  09F1               	comf	___awmod@divisor+1,f
  4661  0052  0AF0               	incf	___awmod@divisor,f
  4662  0053  1903               	skipnz
  4663  0054  0AF1               	incf	___awmod@divisor+1,f
  4664  0055                     l2275:
  4665  0055  0870               	movf	___awmod@divisor,w
  4666  0056  0471               	iorwf	___awmod@divisor+1,w
  4667  0057  1903               	btfsc	3,2
  4668  0058  285A               	goto	u2171
  4669  0059  285B               	goto	u2170
  4670  005A                     u2171:
  4671  005A  2884               	goto	l2293
  4672  005B                     u2170:
  4673  005B                     l2277:
  4674  005B  01F5               	clrf	___awmod@counter
  4675  005C  0AF5               	incf	___awmod@counter,f
  4676  005D  2867               	goto	l2283
  4677  005E                     l2279:
  4678  005E  3001               	movlw	1
  4679  005F                     u2185:
  4680  005F  35F0               	lslf	___awmod@divisor,f
  4681  0060  0DF1               	rlf	___awmod@divisor+1,f
  4682  0061  0B89               	decfsz	9,f
  4683  0062  285F               	goto	u2185
  4684  0063                     l2281:
  4685  0063  3001               	movlw	1
  4686  0064  00F4               	movwf	??___awmod
  4687  0065  0874               	movf	??___awmod,w
  4688  0066  07F5               	addwf	___awmod@counter,f
  4689  0067                     l2283:
  4690  0067  1FF1               	btfss	___awmod@divisor+1,7
  4691  0068  286A               	goto	u2191
  4692  0069  286B               	goto	u2190
  4693  006A                     u2191:
  4694  006A  285E               	goto	l2279
  4695  006B                     u2190:
  4696  006B                     l2285:
  4697  006B  0871               	movf	___awmod@divisor+1,w
  4698  006C  0273               	subwf	___awmod@dividend+1,w
  4699  006D  1D03               	skipz
  4700  006E  2871               	goto	u2205
  4701  006F  0870               	movf	___awmod@divisor,w
  4702  0070  0272               	subwf	___awmod@dividend,w
  4703  0071                     u2205:
  4704  0071  1C03               	skipc
  4705  0072  2874               	goto	u2201
  4706  0073  2875               	goto	u2200
  4707  0074                     u2201:
  4708  0074  2879               	goto	l2289
  4709  0075                     u2200:
  4710  0075                     l2287:
  4711  0075  0870               	movf	___awmod@divisor,w
  4712  0076  02F2               	subwf	___awmod@dividend,f
  4713  0077  0871               	movf	___awmod@divisor+1,w
  4714  0078  3BF3               	subwfb	___awmod@dividend+1,f
  4715  0079                     l2289:
  4716  0079  3001               	movlw	1
  4717  007A                     u2215:
  4718  007A  36F1               	lsrf	___awmod@divisor+1,f
  4719  007B  0CF0               	rrf	___awmod@divisor,f
  4720  007C  0B89               	decfsz	9,f
  4721  007D  287A               	goto	u2215
  4722  007E                     l2291:
  4723  007E  3001               	movlw	1
  4724  007F  02F5               	subwf	___awmod@counter,f
  4725  0080  1D03               	btfss	3,2
  4726  0081  2883               	goto	u2221
  4727  0082  2884               	goto	u2220
  4728  0083                     u2221:
  4729  0083  286B               	goto	l2285
  4730  0084                     u2220:
  4731  0084                     l2293:
  4732  0084  0876               	movf	___awmod@sign,w
  4733  0085  1903               	btfsc	3,2
  4734  0086  2888               	goto	u2231
  4735  0087  2889               	goto	u2230
  4736  0088                     u2231:
  4737  0088  288E               	goto	l2297
  4738  0089                     u2230:
  4739  0089                     l2295:
  4740  0089  09F2               	comf	___awmod@dividend,f
  4741  008A  09F3               	comf	___awmod@dividend+1,f
  4742  008B  0AF2               	incf	___awmod@dividend,f
  4743  008C  1903               	skipnz
  4744  008D  0AF3               	incf	___awmod@dividend+1,f
  4745  008E                     l2297:
  4746  008E  0873               	movf	___awmod@dividend+1,w
  4747  008F  00F1               	movwf	?___awmod+1
  4748  0090  0872               	movf	___awmod@dividend,w
  4749  0091  00F0               	movwf	?___awmod
  4750  0092                     l635:
  4751  0092  0008               	return
  4752  0093                     __end_of___awmod:
  4753                           
  4754                           	psect	text12
  4755  0093                     __ptext12:	
  4756 ;; *************** function ___awdiv *****************
  4757 ;; Defined at:
  4758 ;;		line 5 in file "C:\Program Files\Microchip\xc8\v2.31\pic\sources\c99\common\awdiv.c"
  4759 ;; Parameters:    Size  Location     Type
  4760 ;;  divisor         2    6[COMMON] int 
  4761 ;;  dividend        2    8[COMMON] int 
  4762 ;; Auto vars:     Size  Location     Type
  4763 ;;  quotient        2    2[BANK0 ] int 
  4764 ;;  sign            1    1[BANK0 ] unsigned char 
  4765 ;;  counter         1    0[BANK0 ] unsigned char 
  4766 ;; Return value:  Size  Location     Type
  4767 ;;                  2    6[COMMON] int 
  4768 ;; Registers used:
  4769 ;;		wreg, status,2, status,0
  4770 ;; Tracked objects:
  4771 ;;		On entry : 0/0
  4772 ;;		On exit  : 0/0
  4773 ;;		Unchanged: 0/0
  4774 ;; Data sizes:     COMMON   BANK0   BANK1   BANK2   BANK3   BANK4   BANK5   BANK6   BANK7   BANK8   BANK9  BANK10  BANK1
      +1  BANK12
  4775 ;;      Params:         4       0       0       0       0       0       0       0       0       0       0       0       
      +0       0
  4776 ;;      Locals:         0       4       0       0       0       0       0       0       0       0       0       0       
      +0       0
  4777 ;;      Temps:          1       0       0       0       0       0       0       0       0       0       0       0       
      +0       0
  4778 ;;      Totals:         5       4       0       0       0       0       0       0       0       0       0       0       
      +0       0
  4779 ;;Total ram usage:        9 bytes
  4780 ;; Hardware stack levels used:    1
  4781 ;; This function calls:
  4782 ;;		Nothing
  4783 ;; This function is called by:
  4784 ;;		_hen7
  4785 ;;		_main
  4786 ;; This function uses a non-reentrant model
  4787 ;;
  4788                           
  4789                           
  4790                           ;psect for function ___awdiv
  4791  0093                     ___awdiv:
  4792  0093                     l2219:	
  4793                           ;incstack = 0
  4794                           ; Regs used in ___awdiv: [wreg+status,2+status,0]
  4795                           
  4796  0093  0020               	movlb	0	; select bank0
  4797  0094  01A1               	clrf	___awdiv@sign
  4798  0095                     l2221:
  4799  0095  1FF7               	btfss	___awdiv@divisor+1,7
  4800  0096  2898               	goto	u2051
  4801  0097  2899               	goto	u2050
  4802  0098                     u2051:
  4803  0098  28A0               	goto	l2227
  4804  0099                     u2050:
  4805  0099                     l2223:
  4806  0099  09F6               	comf	___awdiv@divisor,f
  4807  009A  09F7               	comf	___awdiv@divisor+1,f
  4808  009B  0AF6               	incf	___awdiv@divisor,f
  4809  009C  1903               	skipnz
  4810  009D  0AF7               	incf	___awdiv@divisor+1,f
  4811  009E                     l2225:
  4812  009E  01A1               	clrf	___awdiv@sign
  4813  009F  0AA1               	incf	___awdiv@sign,f
  4814  00A0                     l2227:
  4815  00A0  1FF9               	btfss	___awdiv@dividend+1,7
  4816  00A1  28A3               	goto	u2061
  4817  00A2  28A4               	goto	u2060
  4818  00A3                     u2061:
  4819  00A3  28AD               	goto	l2233
  4820  00A4                     u2060:
  4821  00A4                     l2229:
  4822  00A4  09F8               	comf	___awdiv@dividend,f
  4823  00A5  09F9               	comf	___awdiv@dividend+1,f
  4824  00A6  0AF8               	incf	___awdiv@dividend,f
  4825  00A7  1903               	skipnz
  4826  00A8  0AF9               	incf	___awdiv@dividend+1,f
  4827  00A9                     l2231:
  4828  00A9  3001               	movlw	1
  4829  00AA  00FA               	movwf	??___awdiv
  4830  00AB  087A               	movf	??___awdiv,w
  4831  00AC  06A1               	xorwf	___awdiv@sign,f
  4832  00AD                     l2233:
  4833  00AD  01A2               	clrf	___awdiv@quotient
  4834  00AE  01A3               	clrf	___awdiv@quotient+1
  4835  00AF                     l2235:
  4836  00AF  0876               	movf	___awdiv@divisor,w
  4837  00B0  0477               	iorwf	___awdiv@divisor+1,w
  4838  00B1  1903               	btfsc	3,2
  4839  00B2  28B4               	goto	u2071
  4840  00B3  28B5               	goto	u2070
  4841  00B4                     u2071:
  4842  00B4  28E4               	goto	l2255
  4843  00B5                     u2070:
  4844  00B5                     l2237:
  4845  00B5  01A0               	clrf	___awdiv@counter
  4846  00B6  0AA0               	incf	___awdiv@counter,f
  4847  00B7  28C1               	goto	l2243
  4848  00B8                     l2239:
  4849  00B8  3001               	movlw	1
  4850  00B9                     u2085:
  4851  00B9  35F6               	lslf	___awdiv@divisor,f
  4852  00BA  0DF7               	rlf	___awdiv@divisor+1,f
  4853  00BB  0B89               	decfsz	9,f
  4854  00BC  28B9               	goto	u2085
  4855  00BD                     l2241:
  4856  00BD  3001               	movlw	1
  4857  00BE  00FA               	movwf	??___awdiv
  4858  00BF  087A               	movf	??___awdiv,w
  4859  00C0  07A0               	addwf	___awdiv@counter,f
  4860  00C1                     l2243:
  4861  00C1  1FF7               	btfss	___awdiv@divisor+1,7
  4862  00C2  28C4               	goto	u2091
  4863  00C3  28C5               	goto	u2090
  4864  00C4                     u2091:
  4865  00C4  28B8               	goto	l2239
  4866  00C5                     u2090:
  4867  00C5                     l2245:
  4868  00C5  3001               	movlw	1
  4869  00C6                     u2105:
  4870  00C6  35A2               	lslf	___awdiv@quotient,f
  4871  00C7  0DA3               	rlf	___awdiv@quotient+1,f
  4872  00C8  0B89               	decfsz	9,f
  4873  00C9  28C6               	goto	u2105
  4874  00CA  0877               	movf	___awdiv@divisor+1,w
  4875  00CB  0279               	subwf	___awdiv@dividend+1,w
  4876  00CC  1D03               	skipz
  4877  00CD  28D0               	goto	u2115
  4878  00CE  0876               	movf	___awdiv@divisor,w
  4879  00CF  0278               	subwf	___awdiv@dividend,w
  4880  00D0                     u2115:
  4881  00D0  1C03               	skipc
  4882  00D1  28D3               	goto	u2111
  4883  00D2  28D4               	goto	u2110
  4884  00D3                     u2111:
  4885  00D3  28D9               	goto	l2251
  4886  00D4                     u2110:
  4887  00D4                     l2247:
  4888  00D4  0876               	movf	___awdiv@divisor,w
  4889  00D5  02F8               	subwf	___awdiv@dividend,f
  4890  00D6  0877               	movf	___awdiv@divisor+1,w
  4891  00D7  3BF9               	subwfb	___awdiv@dividend+1,f
  4892  00D8                     l2249:
  4893  00D8  1422               	bsf	___awdiv@quotient,0
  4894  00D9                     l2251:
  4895  00D9  3001               	movlw	1
  4896  00DA                     u2125:
  4897  00DA  36F7               	lsrf	___awdiv@divisor+1,f
  4898  00DB  0CF6               	rrf	___awdiv@divisor,f
  4899  00DC  0B89               	decfsz	9,f
  4900  00DD  28DA               	goto	u2125
  4901  00DE                     l2253:
  4902  00DE  3001               	movlw	1
  4903  00DF  02A0               	subwf	___awdiv@counter,f
  4904  00E0  1D03               	btfss	3,2
  4905  00E1  28E3               	goto	u2131
  4906  00E2  28E4               	goto	u2130
  4907  00E3                     u2131:
  4908  00E3  28C5               	goto	l2245
  4909  00E4                     u2130:
  4910  00E4                     l2255:
  4911  00E4  0821               	movf	___awdiv@sign,w
  4912  00E5  1903               	btfsc	3,2
  4913  00E6  28E8               	goto	u2141
  4914  00E7  28E9               	goto	u2140
  4915  00E8                     u2141:
  4916  00E8  28EE               	goto	l2259
  4917  00E9                     u2140:
  4918  00E9                     l2257:
  4919  00E9  09A2               	comf	___awdiv@quotient,f
  4920  00EA  09A3               	comf	___awdiv@quotient+1,f
  4921  00EB  0AA2               	incf	___awdiv@quotient,f
  4922  00EC  1903               	skipnz
  4923  00ED  0AA3               	incf	___awdiv@quotient+1,f
  4924  00EE                     l2259:
  4925  00EE  0823               	movf	___awdiv@quotient+1,w
  4926  00EF  00F7               	movwf	?___awdiv+1
  4927  00F0  0822               	movf	___awdiv@quotient,w
  4928  00F1  00F6               	movwf	?___awdiv
  4929  00F2                     l622:
  4930  00F2  0008               	return
  4931  00F3                     __end_of___awdiv:
  4932                           
  4933                           	psect	text13
  4934  0E98                     __ptext13:	
  4935 ;; *************** function _fclr *****************
  4936 ;; Defined at:
  4937 ;;		line 369 in file "Q5.c"
  4938 ;; Parameters:    Size  Location     Type
  4939 ;;  flg             2    0[COMMON] unsigned short 
  4940 ;; Auto vars:     Size  Location     Type
  4941 ;;		None
  4942 ;; Return value:  Size  Location     Type
  4943 ;;                  1    wreg      void 
  4944 ;; Registers used:
  4945 ;;		wreg, fsr0l, fsr0h, status,2, status,0
  4946 ;; Tracked objects:
  4947 ;;		On entry : 0/0
  4948 ;;		On exit  : 0/0
  4949 ;;		Unchanged: 0/0
  4950 ;; Data sizes:     COMMON   BANK0   BANK1   BANK2   BANK3   BANK4   BANK5   BANK6   BANK7   BANK8   BANK9  BANK10  BANK1
      +1  BANK12
  4951 ;;      Params:         2       0       0       0       0       0       0       0       0       0       0       0       
      +0       0
  4952 ;;      Locals:         0       0       0       0       0       0       0       0       0       0       0       0       
      +0       0
  4953 ;;      Temps:          0       0       0       0       0       0       0       0       0       0       0       0       
      +0       0
  4954 ;;      Totals:         2       0       0       0       0       0       0       0       0       0       0       0       
      +0       0
  4955 ;;Total ram usage:        2 bytes
  4956 ;; Hardware stack levels used:    1
  4957 ;; This function calls:
  4958 ;;		Nothing
  4959 ;; This function is called by:
  4960 ;;		_main
  4961 ;;		_kaisu
  4962 ;; This function uses a non-reentrant model
  4963 ;;
  4964                           
  4965                           
  4966                           ;psect for function _fclr
  4967  0E98                     _fclr:
  4968  0E98                     l2513:	
  4969                           ;incstack = 0
  4970                           ; Regs used in _fclr: [wreg-fsr0h+status,2+status,0]
  4971                           
  4972                           
  4973                           ;Q5.c: 369: void fclr(unsigned short flg);Q5.c: 370: {;Q5.c: 371:     switch(flg){
  4974  0E98  2EA7               	goto	l2523
  4975  0E99                     l2515:
  4976                           
  4977                           ;Q5.c: 373:                     flag_R=0;
  4978  0E99  0020               	movlb	0	; select bank0
  4979  0E9A  01EC               	clrf	_flag_R
  4980  0E9B  01ED               	clrf	_flag_R+1
  4981                           
  4982                           ;Q5.c: 374:                     break;
  4983  0E9C  2EB7               	goto	l217
  4984  0E9D                     l2517:
  4985                           
  4986                           ;Q5.c: 376:                     flag_P=0;
  4987  0E9D  0020               	movlb	0	; select bank0
  4988  0E9E  01EA               	clrf	_flag_P
  4989  0E9F  01EB               	clrf	_flag_P+1
  4990                           
  4991                           ;Q5.c: 377:                     break;
  4992  0EA0  2EB7               	goto	l217
  4993  0EA1                     l2519:
  4994                           
  4995                           ;Q5.c: 379:                     flag_P=flag_R=0;
  4996  0EA1  0020               	movlb	0	; select bank0
  4997  0EA2  01EC               	clrf	_flag_R
  4998  0EA3  01ED               	clrf	_flag_R+1
  4999  0EA4  01EA               	clrf	_flag_P
  5000  0EA5  01EB               	clrf	_flag_P+1
  5001                           
  5002                           ;Q5.c: 380:                     break;
  5003  0EA6  2EB7               	goto	l217
  5004  0EA7                     l2523:
  5005                           
  5006                           ; Switch on 2 bytes has been partitioned into a top level switch of size 1, and 1 sub-sw
      +                          itches
  5007                           ; Switch size 1, requested type "simple"
  5008                           ; Number of cases is 1, Range of values is 0 to 0
  5009                           ; switch strategies available:
  5010                           ; Name         Instructions Cycles
  5011                           ; simple_byte            4     3 (average)
  5012                           ; direct_byte            8     6 (fixed)
  5013                           ; jumptable            260     6 (fixed)
  5014                           ;	Chosen strategy is simple_byte
  5015  0EA7  0871               	movf	fclr@flg+1,w
  5016  0EA8  3A00               	xorlw	0	; case 0
  5017  0EA9  1903               	skipnz
  5018  0EAA  2EAC               	goto	l3009
  5019  0EAB  2EB7               	goto	l217
  5020  0EAC                     l3009:
  5021                           
  5022                           ; Switch size 1, requested type "simple"
  5023                           ; Number of cases is 3, Range of values is 0 to 2
  5024                           ; switch strategies available:
  5025                           ; Name         Instructions Cycles
  5026                           ; simple_byte           10     6 (average)
  5027                           ; direct_byte           12     6 (fixed)
  5028                           ; jumptable            260     6 (fixed)
  5029                           ;	Chosen strategy is simple_byte
  5030  0EAC  0870               	movf	fclr@flg,w
  5031  0EAD  3A00               	xorlw	0	; case 0
  5032  0EAE  1903               	skipnz
  5033  0EAF  2E99               	goto	l2515
  5034  0EB0  3A01               	xorlw	1	; case 1
  5035  0EB1  1903               	skipnz
  5036  0EB2  2E9D               	goto	l2517
  5037  0EB3  3A03               	xorlw	3	; case 2
  5038  0EB4  1903               	skipnz
  5039  0EB5  2EA1               	goto	l2519
  5040  0EB6  2EB7               	goto	l217
  5041  0EB7                     l217:
  5042  0EB7  0008               	return
  5043  0EB8                     __end_of_fclr:
  5044  007E                     btemp	set	126	;btemp
  5045  007E                     wtemp0	set	126
  5046                           
  5047                           	psect	config
  5048                           
  5049                           ;Config register CONFIG1 @ 0x8007
  5050                           ;	Oscillator Selection
  5051                           ;	FOSC = INTOSC, INTOSC oscillator: I/O function on CLKIN pin
  5052                           ;	Watchdog Timer Enable
  5053                           ;	WDTE = OFF, WDT disabled
  5054                           ;	Power-up Timer Enable
  5055                           ;	PWRTE = OFF, PWRT disabled
  5056                           ;	MCLR Pin Function Select
  5057                           ;	MCLRE = ON, MCLR/VPP pin function is MCLR
  5058                           ;	Flash Program Memory Code Protection
  5059                           ;	CP = OFF, Program memory code protection is disabled
  5060                           ;	Data Memory Code Protection
  5061                           ;	CPD = OFF, Data memory code protection is disabled
  5062                           ;	Brown-out Reset Enable
  5063                           ;	BOREN = OFF, Brown-out Reset disabled
  5064                           ;	Clock Out Enable
  5065                           ;	CLKOUTEN = OFF, CLKOUT function is disabled. I/O or oscillator function on the CLKOUT 
      +                          pin
  5066                           ;	Internal/External Switchover
  5067                           ;	IESO = OFF, Internal/External Switchover mode is disabled
  5068                           ;	Fail-Safe Clock Monitor Enable
  5069                           ;	FCMEN = OFF, Fail-Safe Clock Monitor is disabled
  5070  8007                     	org	32775
  5071  8007  09E4               	dw	2532
  5072                           
  5073                           ;Config register CONFIG2 @ 0x8008
  5074                           ;	Flash Memory Self-Write Protection
  5075                           ;	WRT = OFF, Write protection off
  5076                           ;	Voltage Regulator Capacitor Enable
  5077                           ;	VCAPEN = OFF, All VCAP pin functionality is disabled
  5078                           ;	PLL Enable
  5079                           ;	PLLEN = OFF, 4x PLL disabled
  5080                           ;	Stack Overflow/Underflow Reset Enable
  5081                           ;	STVREN = ON, Stack Overflow or Underflow will cause a Reset
  5082                           ;	Brown-out Reset Voltage Selection
  5083                           ;	BORV = LO, Brown-out Reset Voltage (Vbor), low trip point selected.
  5084                           ;	Low-Voltage Programming Enable
  5085                           ;	LVP = OFF, High-voltage on MCLR/VPP must be used for programming
  5086  8008                     	org	32776
  5087  8008  1EFF               	dw	7935

Data Sizes:
    Strings     0
    Constant    0
    Data        156
    BSS         34
    Persistent  32
    Stack       0

Auto Spaces:
    Space          Size  Autos    Used
    COMMON           14     13      13
    BANK0            80     58      80
    BANK1            80      0      72
    BANK2            80      0      64
    BANK3            80      0      32
    BANK4            80      0       0
    BANK5            80      0       0
    BANK6            80      0       0
    BANK7            80      0       0
    BANK8            80      0       0
    BANK9            80      0       0
    BANK10           80      0       0
    BANK11           80      0       0
    BANK12           48      0       0

Pointer List with Targets:

    None.

Critical Paths under _main in COMMON

    _main->_waitSEGStop
    _waitSEGStop->_tact
    _tact->_tactsw
    _motor->_dynam
    _hen7->___awdiv
    ___awdiv->___wmul

Critical Paths under _main in BANK0

    _main->_hen7
    _waitSEGStop->_dynam
    _motor->_dynam
    _hen7->___awdiv

Critical Paths under _main in BANK1

    None.

Critical Paths under _main in BANK2

    None.

Critical Paths under _main in BANK3

    None.

Critical Paths under _main in BANK4

    None.

Critical Paths under _main in BANK5

    None.

Critical Paths under _main in BANK6

    None.

Critical Paths under _main in BANK7

    None.

Critical Paths under _main in BANK8

    None.

Critical Paths under _main in BANK9

    None.

Critical Paths under _main in BANK10

    None.

Critical Paths under _main in BANK11

    None.

Critical Paths under _main in BANK12

    None.

Call Graph Tables:

 ---------------------------------------------------------------------------------
 (Depth) Function   	        Calls       Base Space   Used Autos Params    Refs
 ---------------------------------------------------------------------------------
 (0) _main                                                35    35      0   18712
                                             12 COMMON     1     1      0
                                             24 BANK0     34    34      0
                            ___awdiv
                             ___wmul
                              _dynam
                               _fclr
                               _hen7
                              _motor
                           _portinit
                               _tact
                        _waitSEGStop
                             _zenoff
 ---------------------------------------------------------------------------------
 (1) _zenoff                                               0     0      0       0
 ---------------------------------------------------------------------------------
 (1) _waitSEGStop                                         14     8      6    4196
                                             10 COMMON     2     2      0
                                              8 BANK0     12     6      6
                            ___lwdiv
                              _dynam
                               _tact
 ---------------------------------------------------------------------------------
 (2) _tact                                                 2     0      2     746
                                              8 COMMON     2     0      2
                             _tactsw
 ---------------------------------------------------------------------------------
 (3) _tactsw                                               8     8      0     116
                                              0 COMMON     8     8      0
 ---------------------------------------------------------------------------------
 (2) ___lwdiv                                              8     4      4     466
                                              0 COMMON     8     4      4
 ---------------------------------------------------------------------------------
 (1) _portinit                                             0     0      0       0
 ---------------------------------------------------------------------------------
 (1) _motor                                               12     2     10    4631
                                              8 COMMON     2     2      0
                                              8 BANK0     10     0     10
                              _dynam
 ---------------------------------------------------------------------------------
 (2) _dynam                                               16     8      8    2575
                                              0 COMMON     8     0      8
                                              0 BANK0      8     8      0
 ---------------------------------------------------------------------------------
 (1) _hen7                                                20    16      4    3551
                                              4 BANK0     20    16      4
                            ___awdiv
                            ___awmod
                             ___wmul
 ---------------------------------------------------------------------------------
 (2) ___wmul                                               6     2      4     700
                                              0 COMMON     6     2      4
 ---------------------------------------------------------------------------------
 (2) ___awmod                                              7     3      4     448
                                              0 COMMON     7     3      4
 ---------------------------------------------------------------------------------
 (2) ___awdiv                                              9     5      4     756
                                              6 COMMON     5     1      4
                                              0 BANK0      4     4      0
                             ___wmul (ARG)
 ---------------------------------------------------------------------------------
 (1) _fclr                                                 2     0      2     402
                                              0 COMMON     2     0      2
 ---------------------------------------------------------------------------------
 Estimated maximum stack depth 3
 ---------------------------------------------------------------------------------

 Call Graph Graphs:

 _main (ROOT)
   ___awdiv
     ___wmul (ARG)
   ___wmul
   _dynam
   _fclr
   _hen7
     ___awdiv
       ___wmul (ARG)
     ___awmod
     ___wmul
   _motor
     _dynam
   _portinit
   _tact
     _tactsw
   _waitSEGStop
     ___lwdiv
     _dynam
     _tact
       _tactsw
   _zenoff

 Address spaces:
Name               Size   Autos  Total    Cost      Usage
BIGRAM             3F0      0       0       0        0.0%
EEDATA             100      0       0       0        0.0%
NULL                 0      0       0       0        0.0%
CODE                 0      0       0       0        0.0%
BITCOMMON            E      0       0       1        0.0%
BITSFR0              0      0       0       1        0.0%
SFR0                 0      0       0       1        0.0%
COMMON               E      D       D       2       92.9%
BITSFR1              0      0       0       2        0.0%
SFR1                 0      0       0       2        0.0%
BITSFR2              0      0       0       3        0.0%
SFR2                 0      0       0       3        0.0%
STACK                0      0       0       3        0.0%
BITBANK0            50      0       0       4        0.0%
BITSFR3              0      0       0       4        0.0%
SFR3                 0      0       0       4        0.0%
BANK0               50     3A      50       5      100.0%
BITSFR4              0      0       0       5        0.0%
SFR4                 0      0       0       5        0.0%
BITBANK1            50      0       0       6        0.0%
BITSFR5              0      0       0       6        0.0%
SFR5                 0      0       0       6        0.0%
BANK1               50      0      48       7       90.0%
BITSFR6              0      0       0       7        0.0%
SFR6                 0      0       0       7        0.0%
BITBANK2            50      0       0       8        0.0%
BITSFR7              0      0       0       8        0.0%
SFR7                 0      0       0       8        0.0%
BANK2               50      0      40       9       80.0%
BITSFR8              0      0       0       9        0.0%
SFR8                 0      0       0       9        0.0%
BITBANK3            50      0       0      10        0.0%
BITSFR9              0      0       0      10        0.0%
SFR9                 0      0       0      10        0.0%
BANK3               50      0      20      11       40.0%
BITSFR10             0      0       0      11        0.0%
SFR10                0      0       0      11        0.0%
BITBANK4            50      0       0      12        0.0%
BITSFR11             0      0       0      12        0.0%
SFR11                0      0       0      12        0.0%
BANK4               50      0       0      13        0.0%
BITSFR12             0      0       0      13        0.0%
SFR12                0      0       0      13        0.0%
BITBANK5            50      0       0      14        0.0%
BITSFR13             0      0       0      14        0.0%
SFR13                0      0       0      14        0.0%
BANK5               50      0       0      15        0.0%
BITSFR14             0      0       0      15        0.0%
SFR14                0      0       0      15        0.0%
BITBANK6            50      0       0      16        0.0%
BITSFR15             0      0       0      16        0.0%
SFR15                0      0       0      16        0.0%
BANK6               50      0       0      17        0.0%
BITSFR16             0      0       0      17        0.0%
SFR16                0      0       0      17        0.0%
BITBANK7            50      0       0      18        0.0%
BITSFR17             0      0       0      18        0.0%
SFR17                0      0       0      18        0.0%
BANK7               50      0       0      19        0.0%
BITSFR18             0      0       0      19        0.0%
SFR18                0      0       0      19        0.0%
BITSFR19             0      0       0      20        0.0%
SFR19                0      0       0      20        0.0%
ABS                  0      0     105      20        0.0%
BITBANK8            50      0       0      21        0.0%
BITSFR20             0      0       0      21        0.0%
SFR20                0      0       0      21        0.0%
BANK8               50      0       0      22        0.0%
BITSFR21             0      0       0      22        0.0%
SFR21                0      0       0      22        0.0%
BITBANK9            50      0       0      23        0.0%
BITSFR22             0      0       0      23        0.0%
SFR22                0      0       0      23        0.0%
BANK9               50      0       0      24        0.0%
BITSFR23             0      0       0      24        0.0%
SFR23                0      0       0      24        0.0%
BITBANK10           50      0       0      25        0.0%
BITSFR24             0      0       0      25        0.0%
SFR24                0      0       0      25        0.0%
BANK10              50      0       0      26        0.0%
BITSFR25             0      0       0      26        0.0%
SFR25                0      0       0      26        0.0%
BITBANK11           50      0       0      27        0.0%
BITSFR26             0      0       0      27        0.0%
SFR26                0      0       0      27        0.0%
BANK11              50      0       0      28        0.0%
BITSFR27             0      0       0      28        0.0%
SFR27                0      0       0      28        0.0%
BITBANK12           30      0       0      29        0.0%
BITSFR28             0      0       0      29        0.0%
SFR28                0      0       0      29        0.0%
BANK12              30      0       0      30        0.0%
BITSFR29             0      0       0      30        0.0%
SFR29                0      0       0      30        0.0%
BITSFR30             0      0       0      31        0.0%
SFR30                0      0       0      31        0.0%
DATA                 0      0     105      31        0.0%
BITSFR31             0      0       0      32        0.0%
SFR31                0      0       0      32        0.0%


Microchip Technology PIC Macro Assembler V2.31 build 20201012212115 
Symbol Table                                                                                   Wed Mar 03 23:37:08 2021

                     l95 0E78             ___awdiv@sign 0021                       _cw 0066  
    ___wmul@multiplicand 0072                      l112 0192                      l114 01A2  
                    l123 01D8                      l116 01B8                      l108 0E65  
                    l118 01C8                      l310 0730                      l135 02DF  
                    l208 0FFF                      l217 0EB7                      l129 0255  
                    l170 04B3                      l309 078F                      l271 0EFB  
                    l193 0F74                      l266 0175                      l290 04CE  
                    l292 04FD                      l622 00F2                      l471 0E97  
                    l295 054F                      l288 04C2                      l635 0092  
                    l299 05A0                      l469 0E83                      l749 0F37  
                    _RA0 0060                      _RA1 0061                      _RA2 0062  
                    _RC0 0070                      _RC1 0071                      _RC2 0072  
                    _RC5 0075                      _RC6 0076                      _RC7 0077  
                    _ccw 0064                      _flg 0068             ___awmod@sign 0076  
                    wreg 0009                     l2001 0F48                     l2003 0F52  
                   l2101 0240                     l2021 0180                     l2013 0F6F  
                   l2005 0F57                     l2103 0242                     l2031 0196  
                   l2023 0181                     l2015 0176                     l2007 0F59  
                   l2121 025D                     l2105 0246                     l2041 01A6  
                   l2025 0182                     l2017 017D                     l2009 0F62  
                   l2211 0E88                     l2123 0263                     l2131 0273  
                   l2115 024D                     l2107 0246                     l2051 01BC  
                   l2043 01A7                     l2035 019D                     l2027 0189  
                   l2019 017E                     l3003 0FF4                     l2221 0095  
                   l2213 0E8D                     l2205 0E79                     l3005 02D4  
                   l2141 029E                     l2133 0279                     l2125 0267  
                   l2117 0253                     l2061 01CC                     l2045 01A8  
                   l2029 018E                     l2301 0EFC                     l2231 00A9  
                   l2223 0099                     l2215 0E93                     l2207 0E7B  
                   l3007 04A8                     l2151 02C3                     l2143 02B0  
                   l2135 027F                     l2127 0269                     l2119 0257  
                   l2071 01D6                     l2063 01CC                     l2055 01C3  
                   l2047 01AF                     l2039 01A4                     l2311 0F10  
                   l2303 0EFE                     l3009 0EAC                     l2241 00BD  
                   l2233 00AD                     l2225 009E                     l2209 0E7F  
                   l2401 0365                     l2161 02CA                     l2153 02C3  
                   l2145 02B7                     l2137 0291                     l2129 026D  
                   l2081 01EC                     l2073 01DA                     l2065 01CD  
                   l2049 01B4                     l2321 0F2D                     l2313 0F14  
                   l2305 0F04                     l2251 00D9                     l2243 00C1  
                   l2235 00AF                     l2227 00A0                     l2219 0093  
                   l2403 036F                     l2147 02BD                     l2139 0298  
                   l2091 0214                     l2083 01F0                     l2075 01E0  
                   l2067 01CE                     l2059 01CB                     l2331 0E6C  
                   l2315 0F23                     l2307 0F07                     l2323 0F33  
                   l2171 0FB5                     l2253 00DE                     l2245 00C5  
                   l2237 00B5                     l2229 00A4                     l2501 0495  
                   l2421 039C                     l2405 0377                     l2149 02BF  
                   l2093 021B                     l2077 01E6                     l2085 01F6  
                   l2069 01D0                     l2165 02CF                     l2333 0E73  
                   l2317 0F27                     l2309 0F0C                     l2181 0FC8  
                   l2173 0FB6                     l2247 00D4                     l2239 00B8  
                   l2255 00E4                     l2271 004C                     l2263 0040  
                   l2503 0499                     l2423 03A6                     l2415 0386  
                   l2407 037B                     l2095 0221                     l2087 01FC  
                   l2079 01EA                     l2335 0E76                     l2327 0E66  
                   l2319 0F28                     l2191 0FE2                     l2183 0FCF  
                   l2175 0FB9                     l2513 0E98                     l2257 00E9  
                   l2249 00D8                     l2281 0063                     l2273 0050  
                   l2265 0041                     l2441 03F7                     l2425 03D1  
                   l2417 0390                     l2409 0384                     l2097 0233  
                   l2089 0202                     l2329 0E69                     l2193 0FE8  
                   l2185 0FD4                     l2177 0FC0                     l2361 0E62  
                   l2515 0E99                     l2523 0EA7                     l2259 00EE  
                   l2291 007E                     l2283 0067                     l2275 0055  
                   l2267 0045                     l2451 040C                     l2443 0400  
                   l2435 03DF                     l2427 03D7                     l2419 0398  
                   l2507 04A3                     l2371 02E7                     l2099 023A  
                   l2187 0FD7                     l2179 0FC5                     l2531 010A  
                   l2363 0E63                     l2517 0E9D                     l2285 006B  
                   l2277 005B                     l2293 0084                     l2269 004A  
                   l2453 0414                     l2437 03E9                     l2429 03DC  
                   l2381 033F                     l2373 02EB                     l2189 0FDE  
                   l2541 013C                     l2533 011A                     l2365 0E64  
                   l2357 0E5D                     l2701 04BD                     l2519 0EA1  
                   l2295 0089                     l2287 0075                     l2279 005E  
                   l2471 0443                     l2463 0423                     l2455 0418  
                   l2439 03F2                     l2391 0355                     l2375 02F1  
                   l2367 02E0                     l2199 0FEF                     l2543 014E  
                   l2535 011E                     l2359 0E61                     l2711 04C6  
                   l2703 04BD                     l2297 008E                     l2289 0079  
                   l2473 044C                     l2465 042D                     l2457 0421  
                   l2449 0402                     l2393 035A                     l2377 02FC  
                   l2369 02E3                     l2553 0170                     l2545 015F  
                   l2529 00F3                     l2801 05DC                     l2721 04E9  
                   l2713 04CA                     l2705 04BD                     l2491 0481  
                   l2483 0462                     l2475 045A                     l2467 0435  
                   l2395 0363                     l2387 0342                     l2379 033A  
                   l2563 0EE2                     l2547 0165                     l2539 0125  
                   l2811 0604                     l2803 05E3                     l2731 04F3  
                   l2723 04EB                     l2715 04DF                     l2707 04C0  
                   l2485 046C                     l2477 0460                     l2469 0439  
                   l2389 034C                     l2565 0EF6                     l2557 0ED8  
                   l2549 016B                     l2901 0775                     l2821 0635  
                   l2813 060F                     l2805 05EA                     l2741 0520  
                   l2733 04F5                     l2725 04ED                     l2717 04E6  
                   l2709 04C2                     l2487 0474                     l2559 0EDD  
                   l2911 07A3                     l2903 077E                     l2831 064E  
                   l2823 063B                     l2815 0628                     l2807 05F0  
                   l2751 053F                     l2743 0525                     l2735 04F7  
                   l2727 04EF                     l2719 04E6                     l2497 0483  
                   l2489 0478                     l2921 07C2                     l2913 07A7  
                   l2905 0794                     l2841 068C                     l2833 0665  
                   l2825 063F                     l2817 062E                     l2809 05F2  
                   l2753 0545                     l2745 0529                     l2761 0563  
                   l2737 04F9                     l2729 04F1                     l2499 048D  
                   l2915 07AB                     l2907 0798                     l2843 0691  
                   l2835 066A                     l2827 0643                     l2819 0631  
                   l2851 06CB                     l2771 0581                     l2763 0567  
                   l2755 054B                     l2747 0531                     l2739 04FB  
                   l2917 07B2                     l2909 079F                     l2861 06E7  
                   l2853 06D2                     l2845 0698                     l2837 0671  
                   l2829 064A                     l2781 05A4                     l2773 0588  
                   l2765 056B                     l2757 0553                     l2749 0538  
                   l2919 07BD                     l2871 070C                     l2863 06EE  
                   l2855 06D7                     l2847 069C                     l2839 0675  
                   l2791 05C3                     l2783 05AB                     l2775 058F  
                   l2767 0572                     l2759 055A                     l2881 072C  
                   l2873 0710                     l2865 06F5                     l2857 06DB  
                   l2849 06B3                     l2793 05CA                     l2777 0595  
                   l2769 0579                     l2785 05B4                     l2697 04B4  
                   l2891 0746                     l2883 073D                     l2875 0718  
                   l2867 06FC                     l2859 06E1                     l2795 05D0  
                   l2787 05B8                     l2779 059C                     l2699 04B7  
                   l1997 0F38                     l2893 0752                     l2885 0744  
                   l2877 071F                     l2869 0708                     l2789 05BC  
                   l2797 05D4                     l1999 0F3C                     l2895 0757  
                   l2879 0726                     l2799 05D8                     l2897 075B  
                   l2899 076F                     u2000 0FEE                     u2001 0FED  
                   u2010 0E7F                     u2011 0E7E                     u2110 00D4  
                   u2111 00D3                     u2200 0075                     u2040 0E93  
                   u3000 05B8                     u2105 00C6                     u2201 0074  
                   u2041 0E92                     u2025 0E84                     u3001 05B7  
                   u2130 00E4                     u2050 0099                     u3010 05BC  
                   u2131 00E3                     u2115 00D0                     u2051 0098  
                   u2035 0E89                     u3011 05BB                     u2140 00E9  
                   u2060 00A4                     u2220 0084                     u2300 0F33  
                   u3100 0628                     u3020 05C3                     u2141 00E8  
                   u2125 00DA                     u2061 00A3                     u2221 0083  
                   u2205 0071                     u2301 0F32                     u3101 0627  
                   u3021 05C2                     u2070 00B5                     u2230 0089  
                   u2150 0045                     u3110 063B                     u3030 05CA  
                   u2071 00B4                     u2231 0088                     u2215 007A  
                   u2151 0044                     u3111 063A                     u3031 05C9  
                   u2160 0050                     u2400 03A5                     u2240 0F04  
                   u3200 06E1                     u3120 0643                     u3040 05D0  
                   u2161 004F                     u2401 03A4                     u2241 0F03  
                   u3201 06E0                     u3121 0642                     u3105 0624  
                   u3041 05CF                     u2090 00C5                     u2170 005B  
                   u2330 02E7                     u3210 06E7                     u3130 064A  
                   u3050 05D8                     u2091 00C4                     u2171 005A  
                   u2331 02E6                     u3211 06E6                     u3131 0649  
                   u3051 05D7                     u2500 0481                     u2340 02F1  
                   u2260 0F14                     u3300 0744                     u3220 06EE  
                   u3140 066A                     u3060 05DC                     u2085 00B9  
                   u2501 0480                     u2341 02F0                     u2261 0F13  
                   u3301 0743                     u3221 06ED                     u3141 0669  
                   u3061 05DB                     u2190 006B                     u2510 048D  
                   u2430 03E9                     u2350 034C                     u3310 0775  
                   u3230 06F5                     u3150 0671                     u3070 05E3  
                   u2191 006A                     u2511 048C                     u2431 03E8  
                   u2415 03AC                     u2351 034B                     u2255 0F08  
                   u3311 0774                     u3231 06F4                     u3151 0670  
                   u3071 05E2                     u2520 04A2                     u2440 0400  
                   u2360 0363                     u1800 01E6                     u2280 0F23  
                   u1720 0F52                     u3320 078F                     u3240 06FC  
                   u3160 0691                     u3080 05EA                     u2185 005F  
                   u2521 04A1                     u2441 03FF                     u2425 03BA  
                   u2361 0362                     u1801 01E5                     u2281 0F22  
                   u1721 0F51                     u3321 078E                     u3241 06FB  
                   u3161 0690                     u3081 05E9                     u2450 040C  
                   u2370 036F                     u1810 01FC                     u1730 0F62  
                   u2530 0124                     u3330 0794                     u3250 070C  
                   u3170 0698                     u3090 05F0                     u2515 0489  
                   u2451 040B                     u2435 03E5                     u2371 036E  
                   u2355 0348                     u1811 01FB                     u2275 0F15  
                   u1731 0F61                     u2531 0123                     u3331 0793  
                   u3251 070B                     u3171 0697                     u3091 05EF  
                   u2460 0421                     u2380 0384                     u1900 0279  
                   u1820 0202                     u1740 0189                     u2540 014E  
                   u3340 0798                     u3260 0710                     u3180 06D7  
                   u2461 0420                     u2381 0383                     u1901 0278  
                   u1821 0201                     u1741 0188                     u2285 0F1F  
                   u1725 0F4E                     u2541 014D                     u3341 0797  
                   u3325 078B                     u3261 070F                     u3181 06D6  
                   u2470 042D                     u2390 0390                     u1910 027F  
                   u1830 021B                     u1750 019C                     u2550 015F  
                   u3350 079F                     u3270 0726                     u3190 06DB  
                   u2471 042C                     u2455 0408                     u2391 038F  
                   u2375 036B                     u1911 027E                     u1831 021A  
                   u1751 019B                     u2295 0F29                     u2551 015E  
                   u3351 079E                     u3271 0725                     u3191 06DA  
                   u2480 0442                     u1920 0298                     u1840 0221  
                   u1760 01AF                     u2560 0165                     u3360 07A7  
                   u3280 072C                     u2481 0441                     u1921 0297  
                   u1841 0220                     u1761 01AE                     u2561 0164  
                   u2545 014A                     u3361 07A6                     u3281 072B  
                   u2490 046C                     u1930 029E                     u1850 023A  
                   u1770 01C2                     u2570 016B                     u3370 07AB  
                   u3290 073D                     u2491 046B                     u2475 0429  
                   u2395 038C                     u1931 029D                     u1851 0239  
                   u1771 01C1                     u2571 016A                     u2555 015B  
                   u3371 07AA                     u3291 073C                     u1940 02B7  
                   u1860 0240                     u1780 01D6                     u2580 0EE1  
                   u3380 07B2                     u2900 053F                     u2820 04C6  
                   u1941 02B6                     u1861 023F                     u1781 01D5  
                   u2581 0EE0                     u3381 07B1                     u2901 053E  
                   u2821 04C5                     u1950 02BD                     u1870 0253  
                   u1790 01E0                     u2910 0545                     u2830 04CA  
                   u2495 0468                     u1951 02BC                     u1871 0252  
                   u1791 01DF                     u3295 0739                     u2911 0544  
                   u2831 04C9                     u1880 025D                     u1960 0FC0  
                   u2920 054B                     u2840 04CE                     u1881 025C  
                   u1961 0FBF                     u2921 054A                     u2841 04CD  
                   u1890 0263                     u1970 0FCF                     u2930 0567  
                   u2850 04D5                     u1891 0262                     u1971 0FCE  
                   u2931 0566                     u2851 04D2                     u1980 0FDE  
                   u2940 056B                     u2860 04DD                     u1981 0FDD  
                   u2941 056A                     u2861 04DA                     u1990 0FE8  
                   u2950 0572                     u1991 0FE7                     u2951 0571  
                   u2960 0579                     u2880 0525                     u2864 04D7  
                   u2961 0578                     u2881 0524                     u2970 058F  
                   u2890 0529                     u2874 04DF                     u2971 058E  
                   u2891 0528                     u2980 0595                     u2981 0594  
                   u2990 059C                     u2991 059B                     _hen7 02E0  
                   _atai 00E2                     _fclr 0E98                     _main 04B4  
                   _num0 00C0                     _kisu 014C                     _moja 0140  
                   _samf 01A0                     _mojf 0134                     _tact 0FB5  
                   _mojh 00D8                     _moji 0120                     _mojn 00D4  
                   _samp 00A0                     _gusu 0156                     fsr0h 0005  
                   fsr1h 0007                     indf0 0000                     fsr0l 0004  
                   fsr1l 0006                     btemp 007E                     start 0002  
            main@zyoutai 0058                    ?_hen7 0024                    ?_fclr 0070  
                  ?_main 0070          __end_of___awdiv 00F3                    ?_tact 0078  
        __end_of___awmod 0093          ___awdiv@divisor 0076          __end_of___lwdiv 0F38  
        ___awdiv@counter 0020                    _PORTA 000C                    _PORTB 000D  
                  _PORTC 000E                    _TRISA 008C                    _TRISB 008D  
                  _TRISC 008E                    _code1 005C                    _atai1 0060  
                  hen7@l 0032                    hen7@m 0034                    hen7@n 0036  
                  _count 00E0                    _dynam 0176                    _fugou 005A  
                  _motor 0ED8                    main@i 0050                    main@k 0046  
                  main@m 0040                    status 0003                    wtemp0 007E  
        __initialization 07C9             __end_of_hen7 04B4             __end_of_fclr 0EB8  
           __end_of_main 07C9             __end_of_tact 1000                   ??_hen7 0028  
                 ??_fclr 0072                   ??_main 007C                   ??_tact 007A  
                 ?_dynam 0070         ___awdiv@dividend 0078                   ?_motor 0028  
           ?_waitSEGStop 0028                   _ANSELA 018C                   _ANSELB 018D  
                 _OSCCON 0099              dynam@smdata 0074          waitSEGStop@seg1 0028  
        waitSEGStop@seg2 002A                   ___wmul 0E79                   _code10 005E  
                 _atai10 0062                ??___awdiv 007A                ??___awmod 0074  
                 _flag_P 006A                   _flag_R 006C                ??___lwdiv 0074  
       ___awdiv@quotient 0022                   _tactsw 0F38          ___awmod@divisor 0070  
        ___awmod@counter 0075                   _zenoff 0E5D                   dynam@j 0024  
                 motor@i 0078         __end_of_portinit 0E79  __end_of__initialization 07FD  
         __pcstackCOMMON 0070             __pidataBANK1 0004             __pidataBANK2 0F75  
           __pidataBANK3 0EB8            __end_of_dynam 02E0            __end_of_motor 0EFC  
                ??_dynam 0078                  ??_motor 0078               __pbssBANK0 005A  
             __pbssBANK1 00DC               __pmaintext 04B4                  ?___wmul 0070  
                ?_tactsw 0070                  ?_zenoff 0070               hen7@value1 002C  
   __size_of_waitSEGStop 0083         waitSEGStop@cpSW1 002E         waitSEGStop@cpSW2 0030  
                ___awdiv 0093                  ___awmod 0040          __size_of___wmul 001F  
              ?_portinit 0070                  ___lwdiv 0EFC                  _code100 00DC  
        __size_of_tactsw 003D                  __ptext1 0E5D                  __ptext2 00F3  
                __ptext3 0FB5                  __ptext4 0F38                  __ptext5 0EFC  
                __ptext6 0E66                  __ptext7 0ED8                  __ptext8 0176  
                __ptext9 02E0                  hen7@ns1 0026          __size_of_zenoff 0009  
       ___awmod@dividend 0072                  fclr@flg 0070                  main@ans 0052  
            motor@kakudo 0028                  clrloop0 0E52     end_of_initialization 07FD  
            motor@smdata 002E                  dynam@tm 0022                  dynam@tr 0076  
                init_ram 0E57                  initloop 0E58                  tactsw@a 0076  
                tactsw@b 0072                  tactsw@c 0074                  motor@tr 0030  
             ??_portinit 0070               main@ataiL2 003C               main@ataiR2 003E  
           hen7@value100 0030           __end_of___wmul 0E98            waitSEGStop@wt 002C  
         __end_of_tactsw 0F75           __end_of_zenoff 0E66      start_initialization 07C9  
               ??___wmul 0074              __pdataBANK1 00A0              __pdataBANK2 0120  
            __pdataBANK3 01A0                 ??_tactsw 0070                 ??_zenoff 0070  
              ___latbits 0003            __pcstackBANK0 0020         ___lwdiv@dividend 0072  
               ?___awdiv 0076                 ?___awmod 0070                 ?___lwdiv 0070  
      __size_of_portinit 0013                hen7@value 0024         ___lwdiv@quotient 0075  
          ??_waitSEGStop 007A           __size_of_dynam 016A           __size_of_motor 0024  
          dynam@dig1data 0070            dynam@dig2data 0072           ___wmul@product 0074  
              clear_ram0 0E51            motor@dig1data 002A            motor@dig2data 002C  
      ___wmul@multiplier 0070                main@ataiL 004C                main@ataiR 004E  
            hen7@value10 002E                main@segL2 0048                main@segR2 004A  
           waitSEGStop@i 0032      __end_of_waitSEGStop 0176         __size_of___awdiv 0060  
       __size_of___awmod 0053         __size_of___lwdiv 003C                 _code1000 00DE  
        ___lwdiv@divisor 0070          ___lwdiv@counter 0077                 __ptext10 0E79  
               __ptext11 0040                 _flag_sw1 00E6                 __ptext12 0093  
               _flag_sw2 00E4                 __ptext13 0E98                 _flag_sw3 006E  
          __size_of_hen7 01D4            __size_of_fclr 0020            __size_of_main 0315  
          __size_of_tact 004B                 _portinit 0E66                 main@ans2 0044  
               main@segL 0054                 main@segR 0056                 main@time 0042  
               dynam@ext 0026                 dynam@smd 0020                 tact@mode 0078  
            _waitSEGStop 00F3  
